

Microchip MPLAB XC8 Assembler V2.45 build 20230818022343 
                                                                                               Wed Apr 24 11:44:04 2024

Microchip MPLAB XC8 C Compiler v2.45 (Free license) build 20230818022343 Og1 
     1                           	processor	18F4321
     2                           	fnconf	rparam,??,?,0
     3                           	pagewidth 120
     4                           	opt	flic
     5                           	psect	idataCOMRAM,global,class=CODE,delta=1,noexec
     6                           	psect	idataBANK0,global,class=CODE,delta=1,noexec
     7                           	psect	idataBANK1,global,class=CODE,delta=1,noexec
     8                           	psect	smallconst,global,reloc=2,class=SMALLCONST,delta=1,noexec
     9                           	psect	cinit,global,reloc=2,class=CODE,delta=1
    10                           	psect	bssCOMRAM,global,class=COMRAM,space=1,delta=1,lowdata,noexec
    11                           	psect	dataCOMRAM,global,class=COMRAM,space=1,delta=1,lowdata,noexec
    12                           	psect	bssBANK0,global,class=BANK0,space=1,delta=1,lowdata,noexec
    13                           	psect	dataBANK0,global,class=BANK0,space=1,delta=1,lowdata,noexec
    14                           	psect	dataBANK1,global,class=BANK1,space=1,delta=1,lowdata,noexec
    15                           	psect	cstackCOMRAM,global,class=COMRAM,space=1,delta=1,lowdata,noexec
    16                           	psect	text0,global,reloc=2,class=CODE,delta=1
    17                           	psect	text1,global,reloc=2,class=CODE,delta=1
    18                           	psect	text2,global,reloc=2,class=CODE,delta=1
    19                           	psect	text3,global,reloc=2,class=CODE,delta=1
    20                           	psect	text4,global,reloc=2,class=CODE,delta=1
    21                           	psect	text5,global,reloc=2,class=CODE,delta=1
    22                           	psect	text6,global,reloc=2,class=CODE,delta=1
    23                           	psect	text7,global,reloc=2,class=CODE,delta=1
    24                           	psect	text8,global,reloc=2,class=CODE,delta=1
    25                           	psect	text9,global,reloc=2,class=CODE,delta=1
    26                           	psect	text10,global,reloc=2,class=CODE,delta=1
    27                           	psect	text11,global,reloc=2,class=CODE,delta=1
    28                           	psect	text12,global,reloc=2,class=CODE,delta=1
    29                           	psect	text13,global,reloc=2,class=CODE,delta=1
    30                           	psect	text14,global,reloc=2,class=CODE,delta=1
    31                           	psect	text15,global,reloc=2,class=CODE,delta=1
    32                           	psect	text16,global,reloc=2,class=CODE,delta=1
    33                           	psect	text17,global,reloc=2,class=CODE,delta=1
    34                           	psect	text18,global,reloc=2,class=CODE,delta=1
    35                           	psect	text19,global,reloc=2,class=CODE,delta=1
    36                           	psect	text20,global,reloc=2,class=CODE,delta=1
    37                           	psect	text21,global,reloc=2,class=CODE,delta=1
    38                           	psect	text22,global,reloc=2,class=CODE,delta=1
    39                           	psect	text23,global,reloc=2,class=CODE,delta=1
    40                           	psect	text24,global,reloc=2,class=CODE,delta=1
    41                           	psect	intcode,global,reloc=2,class=CODE,delta=1
    42                           	psect	text26,global,reloc=2,class=CODE,delta=1
    43                           	psect	intsave_regs,global,class=BIGRAM,space=1,delta=1,noexec
    44                           	psect	rparam,global,class=COMRAM,space=1,delta=1,noexec
    45                           	psect	temp,global,ovrld,common,class=COMRAM,space=1,delta=1
    46                           	psect	idloc,global,abs,ovrld,class=IDLOC,space=5,delta=1,noexec
    47                           	psect	config,global,abs,ovrld,class=CONFIG,space=4,delta=1,noexec
    48   000000                     
    49                           ; Generated 18/08/2023 GMT
    50                           ; 
    51                           ; Copyright © 2023, Microchip Technology Inc. and its subsidiaries ("Microchip")
    52                           ; All rights reserved.
    53                           ; 
    54                           ; This software is developed by Microchip Technology Inc. and its subsidiaries ("Microch
      +                          ip").
    55                           ; 
    56                           ; Redistribution and use in source and binary forms, with or without modification, are
    57                           ; permitted provided that the following conditions are met:
    58                           ; 
    59                           ;     1. Redistributions of source code must retain the above copyright notice, this lis
      +                          t of
    60                           ;        conditions and the following disclaimer.
    61                           ; 
    62                           ;     2. Redistributions in binary form must reproduce the above copyright notice, this 
      +                          list
    63                           ;        of conditions and the following disclaimer in the documentation and/or other
    64                           ;        materials provided with the distribution. Publication is not required when
    65                           ;        this file is used in an embedded application.
    66                           ; 
    67                           ;     3. Microchip's name may not be used to endorse or promote products derived from th
      +                          is
    68                           ;        software without specific prior written permission.
    69                           ; 
    70                           ; THIS SOFTWARE IS PROVIDED BY MICROCHIP "AS IS" AND ANY EXPRESS OR IMPLIED WARRANTIES,
    71                           ; INCLUDING, BUT NOT LIMITED TO, THE IMPLIED WARRANTIES OF MERCHANTABILITY AND FITNESS F
      +                          OR
    72                           ; PURPOSE ARE DISCLAIMED.  IN NO EVENT SHALL MICROCHIP BE LIABLE FOR ANY DIRECT, INDIREC
      +                          T,
    73                           ; INCIDENTAL, SPECIAL, EXEMPLARY, OR CONSEQUENTIAL DAMAGES (INCLUDING BUT NOT LIMITED TO
    74                           ; PROCUREMENT OF SUBSTITUTE GOODS OR SERVICES; LOSS OF USE, DATA OR PROFITS; OR BUSINESS
    75                           ; INTERRUPTION) HOWSOEVER CAUSED AND ON ANY THEORY OF LIABILITY, WHETHER IN CONTRACT, ST
      +                          RICT
    76                           ; LIABILITY, OR TORT (INCLUDING NEGLIGENCE OR OTHERWISE) ARISING IN ANY WAY OUT OF THE U
      +                          SE OF
    77                           ; THIS SOFTWARE, EVEN IF ADVISED OF THE POSSIBILITY OF SUCH DAMAGE.
    78                           ; 
    79                           ; 
    80                           ; Code-generator required, PIC18F4321 Definitions
    81                           ; 
    82                           ; SFR Addresses
    83   000000                     
    84                           	psect	idataCOMRAM
    85   000B98                     __pidataCOMRAM:
    86                           	callstack 0
    87                           
    88                           ;initializer for _bye
    89   000B98  62                 	db	98
    90   000B99  79                 	db	121
    91   000B9A  65                 	db	101
    92   000B9B  20                 	db	32
    93   000B9C  62                 	db	98
    94   000B9D  79                 	db	121
    95   000B9E  65                 	db	101
    96   000B9F  20                 	db	32
    97   000BA0  00                 	db	0
    98   000BA1  00                 	db	0
    99   000BA2  00                 	db	0
   100   000BA3  00                 	db	0
   101   000BA4  00                 	db	0
   102                           
   103                           ;initializer for _name
   104   000BA5  20                 	db	32
   105   000BA6  20                 	db	32
   106   000BA7  20                 	db	32
   107   000BA8  20                 	db	32
   108                           
   109                           	psect	idataBANK0
   110   000BA9                     __pidataBANK0:
   111                           	callstack 0
   112                           
   113                           ;initializer for _message
   114   000BA9  20                 	db	32
   115   000BAA  20                 	db	32
   116   000BAB  20                 	db	32
   117   000BAC  20                 	db	32
   118   000BAD  20                 	db	32
   119   000BAE  20                 	db	32
   120   000BAF  20                 	db	32
   121   000BB0  20                 	db	32
   122   000BB1  20                 	db	32
   123   000BB2  20                 	db	32
   124   000BB3  20                 	db	32
   125   000BB4  20                 	db	32
   126   000BB5  20                 	db	32
   127   000BB6  20                 	db	32
   128   000BB7  20                 	db	32
   129   000BB8  20                 	db	32
   130                           
   131                           	psect	idataBANK1
   132   00049E                     __pidataBANK1:
   133                           	callstack 0
   134                           
   135                           ;initializer for _menus
   136   00049E  31                 	db	49
   137   00049F  3A                 	db	58
   138   0004A0  20                 	db	32
   139   0004A1  4C                 	db	76
   140   0004A2  49                 	db	73
   141   0004A3  53                 	db	83
   142   0004A4  54                 	db	84
   143   0004A5  20                 	db	32
   144   0004A6  41                 	db	65
   145   0004A7  43                 	db	67
   146   0004A8  43                 	db	67
   147   0004A9  45                 	db	69
   148   0004AA  53                 	db	83
   149   0004AB  53                 	db	83
   150   0004AC  20                 	db	32
   151   0004AD  50                 	db	80
   152   0004AE  4F                 	db	79
   153   0004AF  49                 	db	73
   154   0004B0  4E                 	db	78
   155   0004B1  54                 	db	84
   156   0004B2  53                 	db	83
   157   0004B3  20                 	db	32
   158   0004B4  00                 	db	0
   159   0004B5  32                 	db	50
   160   0004B6  3A                 	db	58
   161   0004B7  20                 	db	32
   162   0004B8  53                 	db	83
   163   0004B9  48                 	db	72
   164   0004BA  4F                 	db	79
   165   0004BB  57                 	db	87
   166   0004BC  20                 	db	32
   167   0004BD  43                 	db	67
   168   0004BE  4F                 	db	79
   169   0004BF  4E                 	db	78
   170   0004C0  4E                 	db	78
   171   0004C1  2E                 	db	46
   172   0004C2  20                 	db	32
   173   0004C3  53                 	db	83
   174   0004C4  54                 	db	84
   175   0004C5  41                 	db	65
   176   0004C6  54                 	db	84
   177   0004C7  55                 	db	85
   178   0004C8  53                 	db	83
   179   0004C9  20                 	db	32
   180   0004CA  20                 	db	32
   181   0004CB  00                 	db	0
   182   0004CC  33                 	db	51
   183   0004CD  3A                 	db	58
   184   0004CE  20                 	db	32
   185   0004CF  43                 	db	67
   186   0004D0  48                 	db	72
   187   0004D1  41                 	db	65
   188   0004D2  4E                 	db	78
   189   0004D3  47                 	db	71
   190   0004D4  45                 	db	69
   191   0004D5  20                 	db	32
   192   0004D6  43                 	db	67
   193   0004D7  48                 	db	72
   194   0004D8  41                 	db	65
   195   0004D9  54                 	db	84
   196   0004DA  20                 	db	32
   197   0004DB  4D                 	db	77
   198   0004DC  4F                 	db	79
   199   0004DD  44                 	db	68
   200   0004DE  45                 	db	69
   201   0004DF  20                 	db	32
   202   0004E0  20                 	db	32
   203   0004E1  20                 	db	32
   204   0004E2  00                 	db	0
   205   0004E3  34                 	db	52
   206   0004E4  3A                 	db	58
   207   0004E5  20                 	db	32
   208   0004E6  45                 	db	69
   209   0004E7  4E                 	db	78
   210   0004E8  54                 	db	84
   211   0004E9  45                 	db	69
   212   0004EA  52                 	db	82
   213   0004EB  20                 	db	32
   214   0004EC  43                 	db	67
   215   0004ED  48                 	db	72
   216   0004EE  41                 	db	65
   217   0004EF  54                 	db	84
   218   0004F0  20                 	db	32
   219   0004F1  4D                 	db	77
   220   0004F2  4F                 	db	79
   221   0004F3  44                 	db	68
   222   0004F4  45                 	db	69
   223   0004F5  20                 	db	32
   224   0004F6  20                 	db	32
   225   0004F7  20                 	db	32
   226   0004F8  20                 	db	32
   227   0004F9  00                 	db	0
   228   0004FA  35                 	db	53
   229   0004FB  3A                 	db	58
   230   0004FC  20                 	db	32
   231   0004FD  4C                 	db	76
   232   0004FE  49                 	db	73
   233   0004FF  53                 	db	83
   234   000500  54                 	db	84
   235   000501  20                 	db	32
   236   000502  4C                 	db	76
   237   000503  41                 	db	65
   238   000504  53                 	db	83
   239   000505  54                 	db	84
   240   000506  20                 	db	32
   241   000507  4D                 	db	77
   242   000508  53                 	db	83
   243   000509  47                 	db	71
   244   00050A  53                 	db	83
   245   00050B  2E                 	db	46
   246   00050C  20                 	db	32
   247   00050D  20                 	db	32
   248   00050E  20                 	db	32
   249   00050F  20                 	db	32
   250   000510  00                 	db	0
   251   000511  36                 	db	54
   252   000512  3A                 	db	58
   253   000513  20                 	db	32
   254   000514  43                 	db	67
   255   000515  4C                 	db	76
   256   000516  4F                 	db	79
   257   000517  53                 	db	83
   258   000518  45                 	db	69
   259   000519  20                 	db	32
   260   00051A  43                 	db	67
   261   00051B  4F                 	db	79
   262   00051C  4E                 	db	78
   263   00051D  4E                 	db	78
   264   00051E  45                 	db	69
   265   00051F  43                 	db	67
   266   000520  54                 	db	84
   267   000521  49                 	db	73
   268   000522  4F                 	db	79
   269   000523  4E                 	db	78
   270   000524  20                 	db	32
   271   000525  20                 	db	32
   272   000526  20                 	db	32
   273   000527  00                 	db	0
   274   000528  20                 	db	32
   275   000529  20                 	db	32
   276   00052A  20                 	db	32
   277   00052B  20                 	db	32
   278   00052C  20                 	db	32
   279   00052D  20                 	db	32
   280   00052E  20                 	db	32
   281   00052F  20                 	db	32
   282   000530  20                 	db	32
   283   000531  20                 	db	32
   284   000532  20                 	db	32
   285   000533  20                 	db	32
   286   000534  20                 	db	32
   287   000535  20                 	db	32
   288   000536  20                 	db	32
   289   000537  20                 	db	32
   290   000538  20                 	db	32
   291   000539  20                 	db	32
   292   00053A  20                 	db	32
   293   00053B  20                 	db	32
   294   00053C  20                 	db	32
   295   00053D  20                 	db	32
   296   00053E  00                 	db	0
   297                           
   298                           ;initializer for _instruction
   299   00053F  41                 	db	65
   300   000540  54                 	db	84
   301   000541  2B                 	db	43
   302   000542  43                 	db	67
   303   000543  49                 	db	73
   304   000544  50                 	db	80
   305   000545  53                 	db	83
   306   000546  54                 	db	84
   307   000547  41                 	db	65
   308   000548  52                 	db	82
   309   000549  54                 	db	84
   310   00054A  3D                 	db	61
   311   00054B  22                 	db	34
   312   00054C  55                 	db	85
   313   00054D  44                 	db	68
   314   00054E  50                 	db	80
   315   00054F  22                 	db	34
   316   000550  2C                 	db	44
   317   000551  22                 	db	34
   318   000552  32                 	db	50
   319   000553  35                 	db	53
   320   000554  35                 	db	53
   321   000555  2E                 	db	46
   322   000556  32                 	db	50
   323   000557  35                 	db	53
   324   000558  35                 	db	53
   325   000559  2E                 	db	46
   326   00055A  32                 	db	50
   327   00055B  35                 	db	53
   328   00055C  35                 	db	53
   329   00055D  2E                 	db	46
   330   00055E  32                 	db	50
   331   00055F  35                 	db	53
   332   000560  35                 	db	53
   333   000561  22                 	db	34
   334   000562  2C                 	db	44
   335   000563  31                 	db	49
   336   000564  30                 	db	48
   337   000565  30                 	db	48
   338   000566  30                 	db	48
   339   000567  2C                 	db	44
   340   000568  31                 	db	49
   341   000569  30                 	db	48
   342   00056A  30                 	db	48
   343   00056B  32                 	db	50
   344   00056C  0D                 	db	13
   345   00056D  0A                 	db	10
   346   000000                     _RCREG	set	4014
   347   000000                     _TXREG	set	4013
   348   000000                     _SPBRG	set	4015
   349   000000                     _SPBRGH	set	4016
   350   000000                     _BAUDCONbits	set	4024
   351   000000                     _TXSTAbits	set	4012
   352   000000                     _LATCbits	set	3979
   353   000000                     _ADCON0	set	4034
   354   000000                     _TRISCbits	set	3988
   355   000000                     _LATAbits	set	3977
   356   000000                     _LATDbits	set	3980
   357   000000                     _TRISAbits	set	3986
   358   000000                     _LATBbits	set	3978
   359   000000                     _TRISBbits	set	3987
   360   000000                     _TRISEbits	set	3990
   361   000000                     _TMR0IF	set	32658
   362   000000                     _PORTB	set	3969
   363   000000                     _LATA	set	3977
   364   000000                     _LATB	set	3978
   365   000000                     _LATD	set	3980
   366   000000                     _TRISA	set	3986
   367   000000                     _TMR0	set	4054
   368   000000                     _PIR1bits	set	3998
   369   000000                     _RCSTAbits	set	4011
   370   000000                     _ADCON2	set	4032
   371   000000                     _ADCON1	set	4033
   372   000000                     _ADCON0bits	set	4034
   373   000000                     _T0CON	set	4053
   374   000000                     _INTCONbits	set	4082
   375   000000                     _TRISE	set	3990
   376   000000                     _TRISD	set	3989
   377   000000                     _TRISC	set	3988
   378   000000                     _TRISB	set	3987
   379   000000                     _LATEbits	set	3981
   380   000000                     _PORTEbits	set	3972
   381   000000                     _PORTCbits	set	3970
   382   000000                     _ADRESH	set	4036
   383                           
   384                           	psect	smallconst
   385   000200                     __psmallconst:
   386                           	callstack 0
   387   000200  00                 	db	0
   388   000201  52                 	db	82	;'R'
   389   000202  45                 	db	69	;'E'
   390   000203  43                 	db	67	;'C'
   391   000204  2E                 	db	46
   392   000205  50                 	db	80	;'P'
   393   000206  4F                 	db	79	;'O'
   394   000207  52                 	db	82	;'R'
   395   000208  54                 	db	84	;'T'
   396   000209  3A                 	db	58	;':'
   397   00020A  20                 	db	32
   398   00020B  20                 	db	32
   399   00020C  20                 	db	32
   400   00020D  20                 	db	32
   401   00020E  20                 	db	32
   402   00020F  20                 	db	32
   403   000210  20                 	db	32
   404   000211  00                 	db	0
   405   000212  55                 	db	85	;'U'
   406   000213  53                 	db	83	;'S'
   407   000214  45                 	db	69	;'E'
   408   000215  52                 	db	82	;'R'
   409   000216  20                 	db	32
   410   000217  4E                 	db	78	;'N'
   411   000218  41                 	db	65	;'A'
   412   000219  4D                 	db	77	;'M'
   413   00021A  45                 	db	69	;'E'
   414   00021B  3A                 	db	58	;':'
   415   00021C  20                 	db	32
   416   00021D  20                 	db	32
   417   00021E  20                 	db	32
   418   00021F  20                 	db	32
   419   000220  20                 	db	32
   420   000221  20                 	db	32
   421   000222  00                 	db	0
   422   000223  44                 	db	68	;'D'
   423   000224  45                 	db	69	;'E'
   424   000225  53                 	db	83	;'S'
   425   000226  54                 	db	84	;'T'
   426   000227  2E                 	db	46
   427   000228  50                 	db	80	;'P'
   428   000229  4F                 	db	79	;'O'
   429   00022A  52                 	db	82	;'R'
   430   00022B  54                 	db	84	;'T'
   431   00022C  3A                 	db	58	;':'
   432   00022D  20                 	db	32
   433   00022E  20                 	db	32
   434   00022F  20                 	db	32
   435   000230  20                 	db	32
   436   000231  20                 	db	32
   437   000232  20                 	db	32
   438   000233  00                 	db	0
   439   000234                     STR_11:
   440   000234  41                 	db	65	;'A'
   441   000235  54                 	db	84	;'T'
   442   000236  2B                 	db	43
   443   000237  43                 	db	67	;'C'
   444   000238  49                 	db	73	;'I'
   445   000239  50                 	db	80	;'P'
   446   00023A  53                 	db	83	;'S'
   447   00023B  45                 	db	69	;'E'
   448   00023C  4E                 	db	78	;'N'
   449   00023D  44                 	db	68	;'D'
   450   00023E  3D                 	db	61	;'='
   451   00023F  31                 	db	49	;'1'
   452   000240  36                 	db	54	;'6'
   453   000241  0D                 	db	13
   454   000242  0A                 	db	10
   455   000243  00                 	db	0
   456   000244                     STR_9:
   457   000244  41                 	db	65	;'A'
   458   000245  54                 	db	84	;'T'
   459   000246  2B                 	db	43
   460   000247  43                 	db	67	;'C'
   461   000248  49                 	db	73	;'I'
   462   000249  50                 	db	80	;'P'
   463   00024A  53                 	db	83	;'S'
   464   00024B  54                 	db	84	;'T'
   465   00024C  41                 	db	65	;'A'
   466   00024D  54                 	db	84	;'T'
   467   00024E  55                 	db	85	;'U'
   468   00024F  53                 	db	83	;'S'
   469   000250  0D                 	db	13
   470   000251  0A                 	db	10
   471   000252  00                 	db	0
   472   000253                     STR_13:
   473   000253  41                 	db	65	;'A'
   474   000254  54                 	db	84	;'T'
   475   000255  2B                 	db	43
   476   000256  43                 	db	67	;'C'
   477   000257  49                 	db	73	;'I'
   478   000258  50                 	db	80	;'P'
   479   000259  43                 	db	67	;'C'
   480   00025A  4C                 	db	76	;'L'
   481   00025B  4F                 	db	79	;'O'
   482   00025C  53                 	db	83	;'S'
   483   00025D  45                 	db	69	;'E'
   484   00025E  0D                 	db	13
   485   00025F  0A                 	db	10
   486   000260  00                 	db	0
   487   000261                     STR_4:
   488   000261  53                 	db	83	;'S'
   489   000262  43                 	db	67	;'C'
   490   000263  41                 	db	65	;'A'
   491   000264  4E                 	db	78	;'N'
   492   000265  4E                 	db	78	;'N'
   493   000266  49                 	db	73	;'I'
   494   000267  4E                 	db	78	;'N'
   495   000268  47                 	db	71	;'G'
   496   000269  2E                 	db	46
   497   00026A  2E                 	db	46
   498   00026B  2E                 	db	46
   499   00026C  00                 	db	0
   500   00026D                     STR_7:
   501   00026D  41                 	db	65	;'A'
   502   00026E  54                 	db	84	;'T'
   503   00026F  2B                 	db	43
   504   000270  43                 	db	67	;'C'
   505   000271  57                 	db	87	;'W'
   506   000272  4C                 	db	76	;'L'
   507   000273  41                 	db	65	;'A'
   508   000274  50                 	db	80	;'P'
   509   000275  0D                 	db	13
   510   000276  0A                 	db	10
   511   000277  00                 	db	0
   512   000278  45                 	db	69	;'E'
   513   000279  52                 	db	82	;'R'
   514   00027A  52                 	db	82	;'R'
   515   00027B  4F                 	db	79	;'O'
   516   00027C  52                 	db	82	;'R'
   517   00027D  00                 	db	0
   518   00027E  00                 	db	0	; dummy byte at the end
   519   000000                     
   520                           ; #config settings
   521                           
   522                           	psect	cinit
   523   0007D8                     __pcinit:
   524                           	callstack 0
   525   0007D8                     start_initialization:
   526                           	callstack 0
   527   0007D8                     __initialization:
   528                           	callstack 0
   529                           
   530                           ; Initialize objects allocated to BANK1 (208 bytes)
   531                           ; load TBLPTR registers with __pidataBANK1
   532   0007D8  0E9E               	movlw	low __pidataBANK1
   533   0007DA  6EF6               	movwf	tblptrl,c
   534   0007DC  0E04               	movlw	high __pidataBANK1
   535   0007DE  6EF7               	movwf	tblptrh,c
   536   0007E0  0E00               	movlw	low (__pidataBANK1 shr (0+16))
   537   0007E2  6EF8               	movwf	tblptru,c
   538   0007E4  EE01  F000         	lfsr	0,__pdataBANK1
   539   0007E8  EE10 F0D0          	lfsr	1,208
   540   0007EC                     copy_data0:
   541   0007EC  0009               	tblrd		*+
   542   0007EE  CFF5 FFEE          	movff	tablat,postinc0
   543   0007F2  50E5               	movf	postdec1,w,c
   544   0007F4  50E1               	movf	fsr1l,w,c
   545   0007F6  E1FA               	bnz	copy_data0
   546                           
   547                           ; Initialize objects allocated to BANK0 (16 bytes)
   548                           ; load TBLPTR registers with __pidataBANK0
   549   0007F8  0EA9               	movlw	low __pidataBANK0
   550   0007FA  6EF6               	movwf	tblptrl,c
   551   0007FC  0E0B               	movlw	high __pidataBANK0
   552   0007FE  6EF7               	movwf	tblptrh,c
   553   000800  0E00               	movlw	low (__pidataBANK0 shr (0+16))
   554   000802  6EF8               	movwf	tblptru,c
   555   000804  EE00  F0CB         	lfsr	0,__pdataBANK0
   556   000808  EE10 F010          	lfsr	1,16
   557   00080C                     copy_data1:
   558   00080C  0009               	tblrd		*+
   559   00080E  CFF5 FFEE          	movff	tablat,postinc0
   560   000812  50E5               	movf	postdec1,w,c
   561   000814  50E1               	movf	fsr1l,w,c
   562   000816  E1FA               	bnz	copy_data1
   563                           
   564                           ; Initialize objects allocated to COMRAM (17 bytes)
   565                           ; load TBLPTR registers with __pidataCOMRAM
   566   000818  0E98               	movlw	low __pidataCOMRAM
   567   00081A  6EF6               	movwf	tblptrl,c
   568   00081C  0E0B               	movlw	high __pidataCOMRAM
   569   00081E  6EF7               	movwf	tblptrh,c
   570   000820  0E00               	movlw	low (__pidataCOMRAM shr (0+16))
   571   000822  6EF8               	movwf	tblptru,c
   572   000824  EE00  F06C         	lfsr	0,__pdataCOMRAM
   573   000828  EE10 F011          	lfsr	1,17
   574   00082C                     copy_data2:
   575   00082C  0009               	tblrd		*+
   576   00082E  CFF5 FFEE          	movff	tablat,postinc0
   577   000832  50E5               	movf	postdec1,w,c
   578   000834  50E1               	movf	fsr1l,w,c
   579   000836  E1FA               	bnz	copy_data2
   580                           
   581                           ; Clear objects allocated to BANK0 (75 bytes)
   582   000838  EE00  F080         	lfsr	0,__pbssBANK0
   583   00083C  0E4B               	movlw	75
   584   00083E                     clear_0:
   585   00083E  6AEE               	clrf	postinc0,c
   586   000840  06E8               	decf	wreg,f,c
   587   000842  E1FD               	bnz	clear_0
   588                           
   589                           ; Clear objects allocated to COMRAM (85 bytes)
   590   000844  EE00  F001         	lfsr	0,__pbssCOMRAM
   591   000848  0E55               	movlw	85
   592   00084A                     clear_1:
   593   00084A  6AEE               	clrf	postinc0,c
   594   00084C  06E8               	decf	wreg,f,c
   595   00084E  E1FD               	bnz	clear_1
   596   000850                     end_of_initialization:
   597                           	callstack 0
   598   000850                     __end_of__initialization:
   599                           	callstack 0
   600   000850  907D               	bcf	int$flags,0,c	;clear compiler interrupt flag (level 1)
   601   000852  927D               	bcf	int$flags,1,c	;clear compiler interrupt flag (level 2)
   602   000854  0E00               	movlw	low (__Lmediumconst shr (0+16))
   603   000856  6EF8               	movwf	tblptru,c
   604   000858  0100               	movlb	0
   605   00085A  EFC1  F004         	goto	_main	;jump to C main() function
   606                           
   607                           	psect	bssCOMRAM
   608   000001                     __pbssCOMRAM:
   609                           	callstack 0
   610   000001                     _Tics:
   611                           	callstack 0
   612   000001                     	ds	4
   613   000005                     _remotePort@TAD_WORK$F1401:
   614                           	callstack 0
   615   000005                     	ds	2
   616   000007                     _localPort@TAD_WORK$F1400:
   617                           	callstack 0
   618   000007                     	ds	2
   619   000009                     TAD_WORK@state:
   620                           	callstack 0
   621   000009                     	ds	1
   622   00000A                     setMessage@i:
   623                           	callstack 0
   624   00000A                     	ds	1
   625   00000B                     cipStart@offset:
   626                           	callstack 0
   627   00000B                     	ds	1
   628   00000C                     _func:
   629                           	callstack 0
   630   00000C                     	ds	1
   631   00000D                     TAD_UART@i:
   632                           	callstack 0
   633   00000D                     	ds	1
   634   00000E                     TAD_UART@state:
   635                           	callstack 0
   636   00000E                     	ds	1
   637   00000F                     sendString@i:
   638                           	callstack 0
   639   00000F                     	ds	1
   640   000010                     sendByte@aux:
   641                           	callstack 0
   642   000010                     	ds	1
   643   000011                     sendByte@i:
   644                           	callstack 0
   645   000011                     	ds	1
   646   000012                     	ds	1
   647   000013                     	ds	1
   648   000014                     _flag:
   649                           	callstack 0
   650   000014                     	ds	1
   651   000015                     _flags:
   652                           	callstack 0
   653   000015                     	ds	1
   654   000016                     _rc_data:
   655                           	callstack 0
   656   000016                     	ds	1
   657   000017                     TAD_WIFI@var:
   658                           	callstack 0
   659   000017                     	ds	1
   660   000018                     TAD_WIFI@state:
   661                           	callstack 0
   662   000018                     	ds	1
   663   000019                     transmitString@i:
   664                           	callstack 0
   665   000019                     	ds	1
   666   00001A                     _lastState:
   667                           	callstack 0
   668   00001A                     	ds	1
   669   00001B                     TAD_Menu@state:
   670                           	callstack 0
   671   00001B                     	ds	1
   672   00001C                     clearMessage@i:
   673                           	callstack 0
   674   00001C                     	ds	1
   675   00001D                     printMarquesina@row:
   676                           	callstack 0
   677   00001D                     	ds	1
   678   00001E                     _count:
   679                           	callstack 0
   680   00001E                     	ds	1
   681   00001F                     	ds	1
   682   000020                     _offset:
   683                           	callstack 0
   684   000020                     	ds	1
   685   000021                     _i@TAD_MENU$F966:
   686                           	callstack 0
   687   000021                     	ds	1
   688   000022                     _index:
   689                           	callstack 0
   690   000022                     	ds	1
   691   000023                     _menuBottom:
   692                           	callstack 0
   693   000023                     	ds	1
   694   000024                     _menuTop:
   695                           	callstack 0
   696   000024                     	ds	1
   697   000025                     _userFlag:
   698                           	callstack 0
   699   000025                     	ds	1
   700   000026                     TAD_LcD@state:
   701                           	callstack 0
   702   000026                     	ds	1
   703   000027                     _enable@LcTLCD$F788:
   704                           	callstack 0
   705   000027                     	ds	1
   706   000028                     _i@LcTLCD$F787:
   707                           	callstack 0
   708   000028                     	ds	1
   709   000029                     _print:
   710                           	callstack 0
   711   000029                     	ds	1
   712   00002A                     	ds	1
   713   00002B                     _ColumnAct:
   714                           	callstack 0
   715   00002B                     	ds	1
   716   00002C                     _RowAct:
   717                           	callstack 0
   718   00002C                     	ds	1
   719   00002D                     _Columns:
   720                           	callstack 0
   721   00002D                     	ds	1
   722   00002E                     _Rows:
   723                           	callstack 0
   724   00002E                     	ds	1
   725   00002F                     TAD_Speaker@state:
   726                           	callstack 0
   727   00002F                     	ds	1
   728   000030                     TAD_Teclat@estat:
   729                           	callstack 0
   730   000030                     	ds	1
   731   000031                     _enable:
   732                           	callstack 0
   733   000031                     	ds	1
   734   000032                     _digitNumber:
   735                           	callstack 0
   736   000032                     	ds	1
   737   000033                     _teclaPremuda:
   738                           	callstack 0
   739   000033                     	ds	1
   740   000034                     _i:
   741                           	callstack 0
   742   000034                     	ds	1
   743   000035                     _tecla:
   744                           	callstack 0
   745   000035                     	ds	1
   746   000036                     _message@TAD_WORK$F1403:
   747                           	callstack 0
   748   000036                     	ds	16
   749   000046                     _localPort:
   750                           	callstack 0
   751   000046                     	ds	4
   752   00004A                     _remotePort:
   753                           	callstack 0
   754   00004A                     	ds	4
   755   00004E                     _rc:
   756                           	callstack 0
   757   00004E                     	ds	1
   758   00004F                     _tx:
   759                           	callstack 0
   760   00004F                     	ds	1
   761   000050                     _t@TAD_WIFI$F1219:
   762                           	callstack 0
   763   000050                     	ds	1
   764   000051                     _t@TAD_MENU$F958:
   765                           	callstack 0
   766   000051                     	ds	1
   767   000052                     _Timer:
   768                           	callstack 0
   769   000052                     	ds	1
   770   000053                     _t@TAD_SPEAKER$F528:
   771                           	callstack 0
   772   000053                     	ds	1
   773   000054                     _t1:
   774                           	callstack 0
   775   000054                     	ds	1
   776   000055                     _t:
   777                           	callstack 0
   778   000055                     	ds	1
   779                           
   780                           	psect	dataCOMRAM
   781   00006C                     __pdataCOMRAM:
   782                           	callstack 0
   783   00006C                     _bye:
   784                           	callstack 0
   785   00006C                     	ds	13
   786   000079                     _name:
   787                           	callstack 0
   788   000079                     	ds	4
   789                           
   790                           	psect	bssBANK0
   791   000080                     __pbssBANK0:
   792                           	callstack 0
   793   000080                     _Timers:
   794                           	callstack 0
   795   000080                     	ds	75
   796                           
   797                           	psect	dataBANK0
   798   0000CB                     __pdataBANK0:
   799                           	callstack 0
   800   0000CB                     _message:
   801                           	callstack 0
   802   0000CB                     	ds	16
   803                           
   804                           	psect	dataBANK1
   805   000100                     __pdataBANK1:
   806                           	callstack 0
   807   000100                     _menus:
   808                           	callstack 0
   809   000100                     	ds	161
   810   0001A1                     _instruction:
   811                           	callstack 0
   812   0001A1                     	ds	47
   813                           
   814                           	psect	cstackCOMRAM
   815   000056                     __pcstackCOMRAM:
   816                           	callstack 0
   817   000056                     ??_sendByte:
   818   000056                     ??_CantaPartAlta:
   819   000056                     ??_CantaPartBaixa:
   820   000056                     ??_EscriuPrimeraOrdre:
   821   000056                     ?_TI_GetTics:
   822                           	callstack 0
   823   000056                     TI_Init@counter:
   824                           	callstack 0
   825   000056                     TI_NewTimer@TimerHandle:
   826                           	callstack 0
   827   000056                     TI_ResetTics@TimerHandle:
   828                           	callstack 0
   829                           
   830                           ; 1 bytes @ 0x0
   831   000056                     	ds	1
   832   000057                     CantaPartAlta@c:
   833                           	callstack 0
   834   000057                     CantaPartBaixa@c:
   835                           	callstack 0
   836   000057                     EscriuPrimeraOrdre@ordre:
   837                           	callstack 0
   838   000057                     sendByte@_byte:
   839                           	callstack 0
   840                           
   841                           ; 1 bytes @ 0x1
   842   000057                     	ds	1
   843   000058                     TI_NewTimer@Comptador:
   844                           	callstack 0
   845   000058                     CantaIR@IR:
   846                           	callstack 0
   847                           
   848                           ; 1 bytes @ 0x2
   849   000058                     	ds	1
   850   000059                     
   851                           ; 1 bytes @ 0x3
   852   000059                     	ds	1
   853   00005A                     ??_TI_GetTics:
   854                           
   855                           ; 1 bytes @ 0x4
   856   00005A                     	ds	4
   857   00005E                     TI_GetTics@CopiaTicsActual:
   858                           	callstack 0
   859                           
   860                           ; 4 bytes @ 0x8
   861   00005E                     	ds	4
   862   000062                     TI_GetTics@TimerHandle:
   863                           	callstack 0
   864                           
   865                           ; 1 bytes @ 0xC
   866   000062                     	ds	1
   867   000063                     ??_TAD_UART:
   868   000063                     Espera@ms:
   869                           	callstack 0
   870   000063                     WaitForBusy@Busy:
   871                           	callstack 0
   872                           
   873                           ; 1 bytes @ 0xD
   874   000063                     	ds	1
   875   000064                     ??_Espera:
   876   000064                     LcGotoXY@Row:
   877                           	callstack 0
   878                           
   879                           ; 1 bytes @ 0xE
   880   000064                     	ds	1
   881   000065                     ??_LcGotoXY:
   882                           
   883                           ; 1 bytes @ 0xF
   884   000065                     	ds	2
   885   000067                     _LcGotoXY$783:
   886                           	callstack 0
   887                           
   888                           ; 2 bytes @ 0x11
   889   000067                     	ds	1
   890   000068                     Espera@Timer:
   891                           	callstack 0
   892                           
   893                           ; 1 bytes @ 0x12
   894   000068                     	ds	1
   895   000069                     LcGotoXY@Fisics:
   896                           	callstack 0
   897   000069                     LcInit@columns:
   898                           	callstack 0
   899                           
   900                           ; 1 bytes @ 0x13
   901   000069                     	ds	1
   902   00006A                     LcGotoXY@Column:
   903                           	callstack 0
   904   00006A                     LcInit@rows:
   905                           	callstack 0
   906                           
   907                           ; 1 bytes @ 0x14
   908   00006A                     	ds	1
   909   00006B                     LcInit@i:
   910                           	callstack 0
   911                           
   912                           ; 1 bytes @ 0x15
   913   00006B                     	ds	1
   914   00006C                     
   915                           ; 1 bytes @ 0x16
   916 ;;
   917 ;;Main: autosize = 0, tempsize = 0, incstack = 0, save=0
   918 ;;
   919 ;; *************** function _main *****************
   920 ;; Defined at:
   921 ;;		line 47 in file "main.c"
   922 ;; Parameters:    Size  Location     Type
   923 ;;		None
   924 ;; Auto vars:     Size  Location     Type
   925 ;;		None
   926 ;; Return value:  Size  Location     Type
   927 ;;                  1    wreg      void 
   928 ;; Registers used:
   929 ;;		wreg, fsr2l, fsr2h, status,2, status,0, prodl, prodh, cstack
   930 ;; Tracked objects:
   931 ;;		On entry : 0/0
   932 ;;		On exit  : 0/0
   933 ;;		Unchanged: 0/0
   934 ;; Data sizes:     COMRAM   BANK0   BANK1
   935 ;;      Params:         0       0       0
   936 ;;      Locals:         0       0       0
   937 ;;      Temps:          0       0       0
   938 ;;      Totals:         0       0       0
   939 ;;Total ram usage:        0 bytes
   940 ;; Hardware stack levels required when called: 5
   941 ;; This function calls:
   942 ;;		_LcClear
   943 ;;		_LcCursorOff
   944 ;;		_LcGotoXY
   945 ;;		_LcInit
   946 ;;		_TAD_UART
   947 ;;		_TI_Init
   948 ;;		_getData
   949 ;;		_initPorts
   950 ;;		_init_ADC
   951 ;;		_init_KEYB
   952 ;;		_init_Menu
   953 ;;		_init_SPK
   954 ;;		_init_UART
   955 ;;		_init_WIFI
   956 ;;		_sendByte
   957 ;; This function is called by:
   958 ;;		Startup code after reset
   959 ;; This function uses a non-reentrant model
   960 ;;
   961                           
   962                           	psect	text0
   963   000982                     __ptext0:
   964                           	callstack 0
   965   000982                     _main:
   966                           	callstack 26
   967   000982                     
   968                           ;main.c: 48:         TAD_UART();
   969   000982  EC4B  F005         	call	_initPorts	;wreg free
   970   000986                     
   971                           ;main.c: 50:         sendByte(getData());
   972   000986  ECDD  F005         	call	_init_SPK	;wreg free
   973   00098A                     
   974                           ;main.c: 51: 
   975   00098A  ECC3  F005         	call	_init_KEYB	;wreg free
   976   00098E                     
   977                           ;main.c: 52: 
   978   00098E  ECF2  F005         	call	_init_Menu	;wreg free
   979   000992                     
   980                           ;main.c: 53: 
   981   000992  ECE5  F005         	call	_init_ADC	;wreg free
   982                           
   983                           ;main.c: 54: 
   984   000996  ECBA  F005         	call	_init_UART	;wreg free
   985                           
   986                           ;main.c: 55:     }
   987   00099A  EC90  F005         	call	_init_WIFI	;wreg free
   988                           
   989                           ;main.c: 57: }
   990   00099E  EC30  F005         	call	_TI_Init	;wreg free
   991   0009A2  0E10               	movlw	16
   992   0009A4  6E69               	movwf	LcInit@columns^0,c
   993   0009A6  0E02               	movlw	2
   994   0009A8  ECB7  F002         	call	_LcInit
   995   0009AC  ECAF  F005         	call	_LcClear	;wreg free
   996   0009B0  ECEC  F005         	call	_LcCursorOff	;wreg free
   997   0009B4  0E00               	movlw	0
   998   0009B6  6E64               	movwf	LcGotoXY@Row^0,c
   999   0009B8  0E00               	movlw	0
  1000   0009BA  ECE2  F001         	call	_LcGotoXY
  1001   0009BE  8EF2               	bsf	242,7,c	;volatile
  1002   0009C0                     l74:
  1003   0009C0  EC40  F001         	call	_TAD_UART	;wreg free
  1004   0009C4  ECF7  F005         	call	_getData	;wreg free
  1005   0009C8  EC2F  F004         	call	_sendByte
  1006   0009CC  EFE0  F004         	goto	l74
  1007   0009D0  EF10  F000         	goto	start
  1008   0009D4                     __end_of_main:
  1009                           	callstack 0
  1010                           
  1011 ;; *************** function _sendByte *****************
  1012 ;; Defined at:
  1013 ;;		line 19 in file "TAD_UART.C"
  1014 ;; Parameters:    Size  Location     Type
  1015 ;;  _byte           1    wreg     unsigned char 
  1016 ;; Auto vars:     Size  Location     Type
  1017 ;;  _byte           1    1[COMRAM] unsigned char 
  1018 ;; Return value:  Size  Location     Type
  1019 ;;                  1    wreg      unsigned char 
  1020 ;; Registers used:
  1021 ;;		wreg, status,2, status,0
  1022 ;; Tracked objects:
  1023 ;;		On entry : 0/0
  1024 ;;		On exit  : 0/0
  1025 ;;		Unchanged: 0/0
  1026 ;; Data sizes:     COMRAM   BANK0   BANK1
  1027 ;;      Params:         0       0       0
  1028 ;;      Locals:         1       0       0
  1029 ;;      Temps:          1       0       0
  1030 ;;      Totals:         2       0       0
  1031 ;;Total ram usage:        2 bytes
  1032 ;; Hardware stack levels used: 1
  1033 ;; Hardware stack levels required when called: 2
  1034 ;; This function calls:
  1035 ;;		Nothing
  1036 ;; This function is called by:
  1037 ;;		_main
  1038 ;;		_TAD_WIFI
  1039 ;;		_sendString
  1040 ;; This function uses a non-reentrant model
  1041 ;;
  1042                           
  1043                           	psect	text1
  1044   00085E                     __ptext1:
  1045                           	callstack 0
  1046   00085E                     _sendByte:
  1047                           	callstack 28
  1048                           
  1049                           ;incstack = 0
  1050                           ;sendByte@_byte stored from wreg
  1051   00085E  6E57               	movwf	sendByte@_byte^0,c
  1052   000860                     
  1053                           ;TAD_UART.C: 20:     static char i = 0;;TAD_UART.C: 21:     static char aux;;TAD_UART.C:
      +                           23:     if((flags & 1)) {
  1054   000860  A015               	btfss	_flags^0,0,c
  1055   000862  EF35  F004         	goto	u491
  1056   000866  EF37  F004         	goto	u490
  1057   00086A                     u491:
  1058   00086A  EF64  F004         	goto	l668
  1059   00086E                     u490:
  1060   00086E                     
  1061                           ;TAD_UART.C: 24:       if (!i) {
  1062   00086E  5011               	movf	sendByte@i^0,w,c
  1063   000870  A4D8               	btfss	status,2,c
  1064   000872  EF3D  F004         	goto	u501
  1065   000876  EF3F  F004         	goto	u500
  1066   00087A                     u501:
  1067   00087A  EF46  F004         	goto	l1845
  1068   00087E                     u500:
  1069   00087E                     
  1070                           ;TAD_UART.C: 25:         aux = _byte;
  1071   00087E  C057  F010         	movff	sendByte@_byte,sendByte@aux
  1072                           
  1073                           ;TAD_UART.C: 26:         LATEbits.LATE1 = 0;
  1074   000882  928D               	bcf	141,1,c	;volatile
  1075   000884                     
  1076                           ;TAD_UART.C: 27:         i++;
  1077   000884  2A11               	incf	sendByte@i^0,f,c
  1078   000886                     
  1079                           ;TAD_UART.C: 28:         return 0;
  1080   000886  0E00               	movlw	0
  1081   000888  EF64  F004         	goto	l668
  1082   00088C                     l1845:
  1083   00088C  0E08               	movlw	8
  1084   00088E  6411               	cpfsgt	sendByte@i^0,c
  1085   000890  EF4C  F004         	goto	u511
  1086   000894  EF4E  F004         	goto	u510
  1087   000898                     u511:
  1088   000898  EF56  F004         	goto	l1857
  1089   00089C                     u510:
  1090   00089C                     
  1091                           ;TAD_UART.C: 31:         LATEbits.LATE1 = 1;
  1092   00089C  828D               	bsf	141,1,c	;volatile
  1093   00089E                     
  1094                           ;TAD_UART.C: 32:         i = 0;
  1095   00089E  0E00               	movlw	0
  1096   0008A0  6E11               	movwf	sendByte@i^0,c
  1097                           
  1098                           ;TAD_UART.C: 33:         flags = 0;
  1099   0008A2  0E00               	movlw	0
  1100   0008A4  6E15               	movwf	_flags^0,c
  1101   0008A6                     
  1102                           ;TAD_UART.C: 34:         return 1;
  1103   0008A6  0E01               	movlw	1
  1104   0008A8  EF64  F004         	goto	l668
  1105   0008AC                     l1857:
  1106                           
  1107                           ;TAD_UART.C: 37:         LATEbits.LATE1 = aux & 1;
  1108   0008AC  C010  F056         	movff	sendByte@aux,??_sendByte
  1109   0008B0  0E01               	movlw	1
  1110   0008B2  1656               	andwf	??_sendByte^0,f,c
  1111   0008B4  4656               	rlncf	??_sendByte^0,f,c
  1112   0008B6  508D               	movf	141,w,c	;volatile
  1113   0008B8  1856               	xorwf	??_sendByte^0,w,c
  1114   0008BA  0BFD               	andlw	-3
  1115   0008BC  1856               	xorwf	??_sendByte^0,w,c
  1116   0008BE  6E8D               	movwf	141,c	;volatile
  1117                           
  1118                           ;TAD_UART.C: 38:         aux >>= 1;
  1119   0008C0  90D8               	bcf	status,0,c
  1120   0008C2  3210               	rrcf	sendByte@aux^0,f,c
  1121   0008C4                     
  1122                           ;TAD_UART.C: 39:         i++;
  1123   0008C4  2A11               	incf	sendByte@i^0,f,c
  1124                           
  1125                           ;TAD_UART.C: 40:         return 0;
  1126   0008C6  0E00               	movlw	0
  1127   0008C8                     l668:
  1128   0008C8  0012               	return		;funcret
  1129   0008CA                     __end_of_sendByte:
  1130                           	callstack 0
  1131                           
  1132 ;; *************** function _init_WIFI *****************
  1133 ;; Defined at:
  1134 ;;		line 15 in file "TAD_WIFI.C"
  1135 ;; Parameters:    Size  Location     Type
  1136 ;;		None
  1137 ;; Auto vars:     Size  Location     Type
  1138 ;;		None
  1139 ;; Return value:  Size  Location     Type
  1140 ;;                  1    wreg      void 
  1141 ;; Registers used:
  1142 ;;		wreg, fsr2l, fsr2h, status,2, status,0, prodl, prodh, cstack
  1143 ;; Tracked objects:
  1144 ;;		On entry : 0/0
  1145 ;;		On exit  : 0/0
  1146 ;;		Unchanged: 0/0
  1147 ;; Data sizes:     COMRAM   BANK0   BANK1
  1148 ;;      Params:         0       0       0
  1149 ;;      Locals:         0       0       0
  1150 ;;      Temps:          0       0       0
  1151 ;;      Totals:         0       0       0
  1152 ;;Total ram usage:        0 bytes
  1153 ;; Hardware stack levels used: 1
  1154 ;; Hardware stack levels required when called: 3
  1155 ;; This function calls:
  1156 ;;		_TI_NewTimer
  1157 ;; This function is called by:
  1158 ;;		_main
  1159 ;; This function uses a non-reentrant model
  1160 ;;
  1161                           
  1162                           	psect	text2
  1163   000B20                     __ptext2:
  1164                           	callstack 0
  1165   000B20                     _init_WIFI:
  1166                           	callstack 27
  1167   000B20                     
  1168                           ;TAD_WIFI.C: 16:     TI_NewTimer(&t);
  1169   000B20  0E50               	movlw	low _t@TAD_WIFI$F1219
  1170   000B22  6E56               	movwf	TI_NewTimer@TimerHandle^0,c
  1171   000B24  EC95  F004         	call	_TI_NewTimer	;wreg free
  1172   000B28                     
  1173                           ;TAD_WIFI.C: 17:     RCSTAbits.SPEN = 1;
  1174   000B28  8EAB               	bsf	171,7,c	;volatile
  1175   000B2A                     
  1176                           ;TAD_WIFI.C: 18:     RCSTAbits.CREN = 1;
  1177   000B2A  88AB               	bsf	171,4,c	;volatile
  1178   000B2C                     
  1179                           ;TAD_WIFI.C: 19:     TXSTAbits.SYNC = 0;
  1180   000B2C  98AC               	bcf	172,4,c	;volatile
  1181   000B2E                     
  1182                           ;TAD_WIFI.C: 20:     TXSTAbits.BRGH = 1;
  1183   000B2E  84AC               	bsf	172,2,c	;volatile
  1184   000B30                     
  1185                           ;TAD_WIFI.C: 21:     BAUDCONbits.BRG16 = 1;
  1186   000B30  86B8               	bsf	184,3,c	;volatile
  1187   000B32                     
  1188                           ;TAD_WIFI.C: 22:     SPBRGH = 0b00010000;
  1189   000B32  0E10               	movlw	16
  1190   000B34  6EB0               	movwf	176,c	;volatile
  1191   000B36                     
  1192                           ;TAD_WIFI.C: 23:     SPBRG = 0b01000110;
  1193   000B36  0E46               	movlw	70
  1194   000B38  6EAF               	movwf	175,c	;volatile
  1195   000B3A                     
  1196                           ;TAD_WIFI.C: 24:     TXSTAbits.TXEN = 1;
  1197   000B3A  8AAC               	bsf	172,5,c	;volatile
  1198   000B3C                     
  1199                           ;TAD_WIFI.C: 25:     PIR1bits.TXIF = 0;
  1200   000B3C  989E               	bcf	158,4,c	;volatile
  1201   000B3E                     
  1202                           ;TAD_WIFI.C: 26:     PIR1bits.RCIF = 0;
  1203   000B3E  9A9E               	bcf	158,5,c	;volatile
  1204   000B40  0012               	return		;funcret
  1205   000B42                     __end_of_init_WIFI:
  1206                           	callstack 0
  1207                           
  1208 ;; *************** function _init_UART *****************
  1209 ;; Defined at:
  1210 ;;		line 125 in file "TAD_UART.C"
  1211 ;; Parameters:    Size  Location     Type
  1212 ;;		None
  1213 ;; Auto vars:     Size  Location     Type
  1214 ;;		None
  1215 ;; Return value:  Size  Location     Type
  1216 ;;                  1    wreg      void 
  1217 ;; Registers used:
  1218 ;;		wreg, fsr2l, fsr2h, status,2, status,0, prodl, prodh, cstack
  1219 ;; Tracked objects:
  1220 ;;		On entry : 0/0
  1221 ;;		On exit  : 0/0
  1222 ;;		Unchanged: 0/0
  1223 ;; Data sizes:     COMRAM   BANK0   BANK1
  1224 ;;      Params:         0       0       0
  1225 ;;      Locals:         0       0       0
  1226 ;;      Temps:          0       0       0
  1227 ;;      Totals:         0       0       0
  1228 ;;Total ram usage:        0 bytes
  1229 ;; Hardware stack levels used: 1
  1230 ;; Hardware stack levels required when called: 3
  1231 ;; This function calls:
  1232 ;;		_TI_NewTimer
  1233 ;; This function is called by:
  1234 ;;		_main
  1235 ;; This function uses a non-reentrant model
  1236 ;;
  1237                           
  1238                           	psect	text3
  1239   000B74                     __ptext3:
  1240                           	callstack 0
  1241   000B74                     _init_UART:
  1242                           	callstack 27
  1243   000B74                     
  1244                           ;TAD_UART.C: 126:     TI_NewTimer(&tx);
  1245   000B74  0E4F               	movlw	low _tx
  1246   000B76  6E56               	movwf	TI_NewTimer@TimerHandle^0,c
  1247   000B78  EC95  F004         	call	_TI_NewTimer	;wreg free
  1248                           
  1249                           ;TAD_UART.C: 127:     TI_NewTimer(&rc);
  1250   000B7C  0E4E               	movlw	low _rc
  1251   000B7E  6E56               	movwf	TI_NewTimer@TimerHandle^0,c
  1252   000B80  EC95  F004         	call	_TI_NewTimer	;wreg free
  1253   000B84  0012               	return		;funcret
  1254   000B86                     __end_of_init_UART:
  1255                           	callstack 0
  1256                           
  1257 ;; *************** function _init_SPK *****************
  1258 ;; Defined at:
  1259 ;;		line 8 in file "TAD_SPEAKER.c"
  1260 ;; Parameters:    Size  Location     Type
  1261 ;;		None
  1262 ;; Auto vars:     Size  Location     Type
  1263 ;;		None
  1264 ;; Return value:  Size  Location     Type
  1265 ;;                  1    wreg      void 
  1266 ;; Registers used:
  1267 ;;		wreg, fsr2l, fsr2h, status,2, status,0, prodl, prodh, cstack
  1268 ;; Tracked objects:
  1269 ;;		On entry : 0/0
  1270 ;;		On exit  : 0/0
  1271 ;;		Unchanged: 0/0
  1272 ;; Data sizes:     COMRAM   BANK0   BANK1
  1273 ;;      Params:         0       0       0
  1274 ;;      Locals:         0       0       0
  1275 ;;      Temps:          0       0       0
  1276 ;;      Totals:         0       0       0
  1277 ;;Total ram usage:        0 bytes
  1278 ;; Hardware stack levels used: 1
  1279 ;; Hardware stack levels required when called: 3
  1280 ;; This function calls:
  1281 ;;		_TI_NewTimer
  1282 ;;		_TI_ResetTics
  1283 ;; This function is called by:
  1284 ;;		_main
  1285 ;; This function uses a non-reentrant model
  1286 ;;
  1287                           
  1288                           	psect	text4
  1289   000BBA                     __ptext4:
  1290                           	callstack 0
  1291   000BBA                     _init_SPK:
  1292                           	callstack 27
  1293   000BBA                     
  1294                           ;TAD_SPEAKER.c: 9:     TI_NewTimer(&t);
  1295   000BBA  0E53               	movlw	low _t@TAD_SPEAKER$F528
  1296   000BBC  6E56               	movwf	TI_NewTimer@TimerHandle^0,c
  1297   000BBE  EC95  F004         	call	_TI_NewTimer	;wreg free
  1298                           
  1299                           ;TAD_SPEAKER.c: 10:     TI_ResetTics(t);
  1300   000BC2  5053               	movf	_t@TAD_SPEAKER$F528^0,w,c
  1301   000BC4  EC7E  F005         	call	_TI_ResetTics
  1302   000BC8  0012               	return		;funcret
  1303   000BCA                     __end_of_init_SPK:
  1304                           	callstack 0
  1305                           
  1306 ;; *************** function _init_Menu *****************
  1307 ;; Defined at:
  1308 ;;		line 62 in file "TAD_MENU.C"
  1309 ;; Parameters:    Size  Location     Type
  1310 ;;		None
  1311 ;; Auto vars:     Size  Location     Type
  1312 ;;		None
  1313 ;; Return value:  Size  Location     Type
  1314 ;;                  1    wreg      void 
  1315 ;; Registers used:
  1316 ;;		wreg, fsr2l, fsr2h, status,2, status,0, prodl, prodh, cstack
  1317 ;; Tracked objects:
  1318 ;;		On entry : 0/0
  1319 ;;		On exit  : 0/0
  1320 ;;		Unchanged: 0/0
  1321 ;; Data sizes:     COMRAM   BANK0   BANK1
  1322 ;;      Params:         0       0       0
  1323 ;;      Locals:         0       0       0
  1324 ;;      Temps:          0       0       0
  1325 ;;      Totals:         0       0       0
  1326 ;;Total ram usage:        0 bytes
  1327 ;; Hardware stack levels used: 1
  1328 ;; Hardware stack levels required when called: 3
  1329 ;; This function calls:
  1330 ;;		_TI_NewTimer
  1331 ;; This function is called by:
  1332 ;;		_main
  1333 ;; This function uses a non-reentrant model
  1334 ;;
  1335                           
  1336                           	psect	text5
  1337   000BE4                     __ptext5:
  1338                           	callstack 0
  1339   000BE4                     _init_Menu:
  1340                           	callstack 27
  1341   000BE4                     
  1342                           ;TAD_MENU.C: 63:     TI_NewTimer(&t);
  1343   000BE4  0E51               	movlw	low _t@TAD_MENU$F958
  1344   000BE6  6E56               	movwf	TI_NewTimer@TimerHandle^0,c
  1345   000BE8  EC95  F004         	call	_TI_NewTimer	;wreg free
  1346   000BEC  0012               	return		;funcret
  1347   000BEE                     __end_of_init_Menu:
  1348                           	callstack 0
  1349                           
  1350 ;; *************** function _init_KEYB *****************
  1351 ;; Defined at:
  1352 ;;		line 40 in file "TAD_TECLAT.c"
  1353 ;; Parameters:    Size  Location     Type
  1354 ;;		None
  1355 ;; Auto vars:     Size  Location     Type
  1356 ;;		None
  1357 ;; Return value:  Size  Location     Type
  1358 ;;                  1    wreg      void 
  1359 ;; Registers used:
  1360 ;;		wreg, fsr2l, fsr2h, status,2, status,0, prodl, prodh, cstack
  1361 ;; Tracked objects:
  1362 ;;		On entry : 0/0
  1363 ;;		On exit  : 0/0
  1364 ;;		Unchanged: 0/0
  1365 ;; Data sizes:     COMRAM   BANK0   BANK1
  1366 ;;      Params:         0       0       0
  1367 ;;      Locals:         0       0       0
  1368 ;;      Temps:          0       0       0
  1369 ;;      Totals:         0       0       0
  1370 ;;Total ram usage:        0 bytes
  1371 ;; Hardware stack levels used: 1
  1372 ;; Hardware stack levels required when called: 3
  1373 ;; This function calls:
  1374 ;;		_TI_NewTimer
  1375 ;; This function is called by:
  1376 ;;		_main
  1377 ;; This function uses a non-reentrant model
  1378 ;;
  1379                           
  1380                           	psect	text6
  1381   000B86                     __ptext6:
  1382                           	callstack 0
  1383   000B86                     _init_KEYB:
  1384                           	callstack 27
  1385   000B86                     
  1386                           ;TAD_TECLAT.c: 41:     TI_NewTimer(&t);
  1387   000B86  0E55               	movlw	low _t
  1388   000B88  6E56               	movwf	TI_NewTimer@TimerHandle^0,c
  1389   000B8A  EC95  F004         	call	_TI_NewTimer	;wreg free
  1390                           
  1391                           ;TAD_TECLAT.c: 42:     TI_NewTimer(&t1);
  1392   000B8E  0E54               	movlw	low _t1
  1393   000B90  6E56               	movwf	TI_NewTimer@TimerHandle^0,c
  1394   000B92  EC95  F004         	call	_TI_NewTimer	;wreg free
  1395   000B96  0012               	return		;funcret
  1396   000B98                     __end_of_init_KEYB:
  1397                           	callstack 0
  1398                           
  1399 ;; *************** function _init_ADC *****************
  1400 ;; Defined at:
  1401 ;;		line 13 in file "TAD_JOYSTICK.C"
  1402 ;; Parameters:    Size  Location     Type
  1403 ;;		None
  1404 ;; Auto vars:     Size  Location     Type
  1405 ;;		None
  1406 ;; Return value:  Size  Location     Type
  1407 ;;                  1    wreg      void 
  1408 ;; Registers used:
  1409 ;;		wreg, status,2
  1410 ;; Tracked objects:
  1411 ;;		On entry : 0/0
  1412 ;;		On exit  : 0/0
  1413 ;;		Unchanged: 0/0
  1414 ;; Data sizes:     COMRAM   BANK0   BANK1
  1415 ;;      Params:         0       0       0
  1416 ;;      Locals:         0       0       0
  1417 ;;      Temps:          0       0       0
  1418 ;;      Totals:         0       0       0
  1419 ;;Total ram usage:        0 bytes
  1420 ;; Hardware stack levels used: 1
  1421 ;; Hardware stack levels required when called: 2
  1422 ;; This function calls:
  1423 ;;		Nothing
  1424 ;; This function is called by:
  1425 ;;		_main
  1426 ;; This function uses a non-reentrant model
  1427 ;;
  1428                           
  1429                           	psect	text7
  1430   000BCA                     __ptext7:
  1431                           	callstack 0
  1432   000BCA                     _init_ADC:
  1433                           	callstack 28
  1434   000BCA                     
  1435                           ;TAD_JOYSTICK.C: 15:     ADCON0 = 0b0000011;
  1436   000BCA  0E03               	movlw	3
  1437   000BCC  6EC2               	movwf	194,c	;volatile
  1438                           
  1439                           ;TAD_JOYSTICK.C: 19:     ADCON1 = 0b00001110;
  1440   000BCE  0E0E               	movlw	14
  1441   000BD0  6EC1               	movwf	193,c	;volatile
  1442                           
  1443                           ;TAD_JOYSTICK.C: 21:     ADCON2 = 0b00111110;
  1444   000BD2  0E3E               	movlw	62
  1445   000BD4  6EC0               	movwf	192,c	;volatile
  1446   000BD6  0012               	return		;funcret
  1447   000BD8                     __end_of_init_ADC:
  1448                           	callstack 0
  1449                           
  1450 ;; *************** function _initPorts *****************
  1451 ;; Defined at:
  1452 ;;		line 21 in file "main.c"
  1453 ;; Parameters:    Size  Location     Type
  1454 ;;		None
  1455 ;; Auto vars:     Size  Location     Type
  1456 ;;		None
  1457 ;; Return value:  Size  Location     Type
  1458 ;;                  1    wreg      void 
  1459 ;; Registers used:
  1460 ;;		wreg, status,2
  1461 ;; Tracked objects:
  1462 ;;		On entry : 0/0
  1463 ;;		On exit  : 0/0
  1464 ;;		Unchanged: 0/0
  1465 ;; Data sizes:     COMRAM   BANK0   BANK1
  1466 ;;      Params:         0       0       0
  1467 ;;      Locals:         0       0       0
  1468 ;;      Temps:          0       0       0
  1469 ;;      Totals:         0       0       0
  1470 ;;Total ram usage:        0 bytes
  1471 ;; Hardware stack levels used: 1
  1472 ;; Hardware stack levels required when called: 2
  1473 ;; This function calls:
  1474 ;;		Nothing
  1475 ;; This function is called by:
  1476 ;;		_main
  1477 ;; This function uses a non-reentrant model
  1478 ;;
  1479                           
  1480                           	psect	text8
  1481   000A96                     __ptext8:
  1482                           	callstack 0
  1483   000A96                     _initPorts:
  1484                           	callstack 28
  1485   000A96                     
  1486                           ;main.c: 22:         RSI_Timer0();
  1487   000A96  0E00               	movlw	0
  1488   000A98  6E92               	movwf	146,c	;volatile
  1489                           
  1490                           ;main.c: 23:     }
  1491   000A9A  0E00               	movlw	0
  1492   000A9C  6E93               	movwf	147,c	;volatile
  1493                           
  1494                           ;main.c: 24: }
  1495   000A9E  0E01               	movlw	1
  1496   000AA0  6E94               	movwf	148,c	;volatile
  1497                           
  1498                           ;main.c: 25: 
  1499   000AA2  0E00               	movlw	0
  1500   000AA4  6E95               	movwf	149,c	;volatile
  1501                           
  1502                           ;main.c: 26: void main(void) {
  1503   000AA6  0E00               	movlw	0
  1504   000AA8  6E96               	movwf	150,c	;volatile
  1505   000AAA                     
  1506                           ;main.c: 27:     initPorts();
  1507   000AAA  8096               	bsf	150,0,c	;volatile
  1508                           
  1509                           ;main.c: 28: 
  1510   000AAC  0E00               	movlw	0
  1511   000AAE  6E8C               	movwf	140,c	;volatile
  1512   000AB0                     
  1513                           ;main.c: 29:     init_SPK();
  1514   000AB0  8893               	bsf	147,4,c	;volatile
  1515   000AB2                     
  1516                           ;main.c: 30:     init_KEYB();
  1517   000AB2  8A93               	bsf	147,5,c	;volatile
  1518   000AB4                     
  1519                           ;main.c: 31:     init_Menu();
  1520   000AB4  8C93               	bsf	147,6,c	;volatile
  1521   000AB6                     
  1522                           ;main.c: 32:     init_ADC();
  1523   000AB6  8E93               	bsf	147,7,c	;volatile
  1524                           
  1525                           ;main.c: 33:     init_UART();
  1526   000AB8  0E00               	movlw	0
  1527   000ABA  6E8A               	movwf	138,c	;volatile
  1528                           
  1529                           ;main.c: 34:     init_WIFI();
  1530   000ABC  0E00               	movlw	0
  1531   000ABE  6E89               	movwf	137,c	;volatile
  1532   000AC0                     
  1533                           ;main.c: 35: 
  1534   000AC0  828D               	bsf	141,1,c	;volatile
  1535   000AC2                     
  1536                           ;main.c: 36:     TI_Init();
  1537   000AC2  808A               	bsf	138,0,c	;volatile
  1538   000AC4                     
  1539                           ;main.c: 37: 
  1540   000AC4  8092               	bsf	146,0,c	;volatile
  1541   000AC6                     
  1542                           ;main.c: 38:     LcInit(2, 16);
  1543   000AC6  908C               	bcf	140,0,c	;volatile
  1544   000AC8  0012               	return		;funcret
  1545   000ACA                     __end_of_initPorts:
  1546                           	callstack 0
  1547                           
  1548 ;; *************** function _getData *****************
  1549 ;; Defined at:
  1550 ;;		line 60 in file "TAD_UART.C"
  1551 ;; Parameters:    Size  Location     Type
  1552 ;;		None
  1553 ;; Auto vars:     Size  Location     Type
  1554 ;;		None
  1555 ;; Return value:  Size  Location     Type
  1556 ;;                  1    wreg      unsigned char 
  1557 ;; Registers used:
  1558 ;;		wreg, status,2
  1559 ;; Tracked objects:
  1560 ;;		On entry : 0/0
  1561 ;;		On exit  : 0/0
  1562 ;;		Unchanged: 0/0
  1563 ;; Data sizes:     COMRAM   BANK0   BANK1
  1564 ;;      Params:         0       0       0
  1565 ;;      Locals:         0       0       0
  1566 ;;      Temps:          0       0       0
  1567 ;;      Totals:         0       0       0
  1568 ;;Total ram usage:        0 bytes
  1569 ;; Hardware stack levels used: 1
  1570 ;; Hardware stack levels required when called: 2
  1571 ;; This function calls:
  1572 ;;		Nothing
  1573 ;; This function is called by:
  1574 ;;		_main
  1575 ;; This function uses a non-reentrant model
  1576 ;;
  1577                           
  1578                           	psect	text9
  1579   000BEE                     __ptext9:
  1580                           	callstack 0
  1581   000BEE                     _getData:
  1582                           	callstack 28
  1583   000BEE                     
  1584                           ;TAD_UART.C: 61:     return rc_data;
  1585   000BEE  5016               	movf	_rc_data^0,w,c
  1586   000BF0  0012               	return		;funcret
  1587   000BF2                     __end_of_getData:
  1588                           	callstack 0
  1589                           
  1590 ;; *************** function _TI_Init *****************
  1591 ;; Defined at:
  1592 ;;		line 34 in file "TAD_TIMER.C"
  1593 ;; Parameters:    Size  Location     Type
  1594 ;;		None
  1595 ;; Auto vars:     Size  Location     Type
  1596 ;;  counter         1    0[COMRAM] unsigned char 
  1597 ;; Return value:  Size  Location     Type
  1598 ;;                  1    wreg      void 
  1599 ;; Registers used:
  1600 ;;		wreg, fsr2l, fsr2h, status,2, status,0, prodl, prodh
  1601 ;; Tracked objects:
  1602 ;;		On entry : 0/0
  1603 ;;		On exit  : 0/0
  1604 ;;		Unchanged: 0/0
  1605 ;; Data sizes:     COMRAM   BANK0   BANK1
  1606 ;;      Params:         0       0       0
  1607 ;;      Locals:         1       0       0
  1608 ;;      Temps:          0       0       0
  1609 ;;      Totals:         1       0       0
  1610 ;;Total ram usage:        1 bytes
  1611 ;; Hardware stack levels used: 1
  1612 ;; Hardware stack levels required when called: 2
  1613 ;; This function calls:
  1614 ;;		Nothing
  1615 ;; This function is called by:
  1616 ;;		_main
  1617 ;; This function uses a non-reentrant model
  1618 ;;
  1619                           
  1620                           	psect	text10
  1621   000A60                     __ptext10:
  1622                           	callstack 0
  1623   000A60                     _TI_Init:
  1624                           	callstack 28
  1625   000A60                     
  1626                           ;TAD_TIMER.C: 35:  for (unsigned char counter=0; counter<15; counter++) {
  1627   000A60  0E00               	movlw	0
  1628   000A62  6E56               	movwf	TI_Init@counter^0,c
  1629   000A64                     l2843:
  1630                           
  1631                           ;TAD_TIMER.C: 36:   Timers[counter].Busy=0;
  1632   000A64  5056               	movf	TI_Init@counter^0,w,c
  1633   000A66  0D05               	mullw	5
  1634   000A68  50F3               	movf	243,w,c
  1635   000A6A  0F84               	addlw	low (_Timers+4)
  1636   000A6C  6ED9               	movwf	fsr2l,c
  1637   000A6E  6ADA               	clrf	fsr2h,c
  1638   000A70  6ADF               	clrf	indf2,c
  1639   000A72                     
  1640                           ;TAD_TIMER.C: 37:  }
  1641   000A72  2A56               	incf	TI_Init@counter^0,f,c
  1642   000A74  0E0E               	movlw	14
  1643   000A76  6456               	cpfsgt	TI_Init@counter^0,c
  1644   000A78  EF40  F005         	goto	u1751
  1645   000A7C  EF42  F005         	goto	u1750
  1646   000A80                     u1751:
  1647   000A80  EF32  F005         	goto	l2843
  1648   000A84                     u1750:
  1649   000A84                     
  1650                           ;TAD_TIMER.C: 38:  T0CON=0x82;
  1651   000A84  0E82               	movlw	130
  1652   000A86  6ED5               	movwf	213,c	;volatile
  1653                           
  1654                           ;TAD_TIMER.C: 39:     TMR0=65280;
  1655   000A88  0EFF               	movlw	255
  1656   000A8A  6ED7               	movwf	215,c	;volatile
  1657   000A8C  0E00               	movlw	0
  1658   000A8E  6ED6               	movwf	214,c	;volatile
  1659   000A90                     
  1660                           ;TAD_TIMER.C: 40:  INTCONbits.TMR0IF = 0;
  1661   000A90  94F2               	bcf	242,2,c	;volatile
  1662   000A92                     
  1663                           ;TAD_TIMER.C: 41:  INTCONbits.TMR0IE = 1;
  1664   000A92  8AF2               	bsf	242,5,c	;volatile
  1665   000A94  0012               	return		;funcret
  1666   000A96                     __end_of_TI_Init:
  1667                           	callstack 0
  1668                           
  1669 ;; *************** function _TAD_UART *****************
  1670 ;; Defined at:
  1671 ;;		line 73 in file "TAD_UART.C"
  1672 ;; Parameters:    Size  Location     Type
  1673 ;;		None
  1674 ;; Auto vars:     Size  Location     Type
  1675 ;;		None
  1676 ;; Return value:  Size  Location     Type
  1677 ;;                  1    wreg      void 
  1678 ;; Registers used:
  1679 ;;		wreg, fsr2l, fsr2h, status,2, status,0, prodl, prodh, cstack
  1680 ;; Tracked objects:
  1681 ;;		On entry : 0/0
  1682 ;;		On exit  : 0/0
  1683 ;;		Unchanged: 0/0
  1684 ;; Data sizes:     COMRAM   BANK0   BANK1
  1685 ;;      Params:         0       0       0
  1686 ;;      Locals:         0       0       0
  1687 ;;      Temps:          2       0       0
  1688 ;;      Totals:         2       0       0
  1689 ;;Total ram usage:        2 bytes
  1690 ;; Hardware stack levels used: 1
  1691 ;; Hardware stack levels required when called: 3
  1692 ;; This function calls:
  1693 ;;		_TI_GetTics
  1694 ;;		_TI_ResetTics
  1695 ;; This function is called by:
  1696 ;;		_main
  1697 ;; This function uses a non-reentrant model
  1698 ;;
  1699                           
  1700                           	psect	text11
  1701   000280                     __ptext11:
  1702                           	callstack 0
  1703   000280                     _TAD_UART:
  1704                           	callstack 27
  1705   000280                     
  1706                           ;TAD_UART.C: 74:     static unsigned char state = 0;;TAD_UART.C: 75:     static unsigned
      +                           char i = 0;;TAD_UART.C: 77:     switch (state) {
  1707   000280  EFC0  F001         	goto	l2993
  1708   000284                     l695:
  1709                           
  1710                           ;TAD_UART.C: 79:             if (!PORTEbits.RE0) {
  1711   000284  B084               	btfsc	132,0,c	;volatile
  1712   000286  EF47  F001         	goto	u1811
  1713   00028A  EF49  F001         	goto	u1810
  1714   00028E                     u1811:
  1715   00028E  EFE1  F001         	goto	l709
  1716   000292                     u1810:
  1717   000292                     
  1718                           ;TAD_UART.C: 80:                 TI_ResetTics(rc);
  1719   000292  504E               	movf	_rc^0,w,c
  1720   000294  EC7E  F005         	call	_TI_ResetTics
  1721   000298                     
  1722                           ;TAD_UART.C: 81:                 rc_data = 0;
  1723   000298  0E00               	movlw	0
  1724   00029A  6E16               	movwf	_rc_data^0,c
  1725   00029C                     l2957:
  1726                           
  1727                           ;TAD_UART.C: 82:                 state++;
  1728   00029C  2A0E               	incf	TAD_UART@state^0,f,c
  1729   00029E  EFE1  F001         	goto	l709
  1730   0002A2                     l2959:
  1731                           
  1732                           ;TAD_UART.C: 86:             if (TI_GetTics(rc)) {
  1733   0002A2  504E               	movf	_rc^0,w,c
  1734   0002A4  ECEA  F004         	call	_TI_GetTics
  1735   0002A8  5056               	movf	?_TI_GetTics^0,w,c
  1736   0002AA  1057               	iorwf	(?_TI_GetTics+1)^0,w,c
  1737   0002AC  1058               	iorwf	(?_TI_GetTics+2)^0,w,c
  1738   0002AE  1059               	iorwf	(?_TI_GetTics+3)^0,w,c
  1739   0002B0  B4D8               	btfsc	status,2,c
  1740   0002B2  EF5D  F001         	goto	u1821
  1741   0002B6  EF5F  F001         	goto	u1820
  1742   0002BA                     u1821:
  1743   0002BA  EFE1  F001         	goto	l709
  1744   0002BE                     u1820:
  1745   0002BE                     
  1746                           ;TAD_UART.C: 87:                 i = 0;
  1747   0002BE  0E00               	movlw	0
  1748   0002C0  6E0D               	movwf	TAD_UART@i^0,c
  1749   0002C2  EF4E  F001         	goto	l2957
  1750   0002C6                     l2965:
  1751                           
  1752                           ;TAD_UART.C: 92:             if (i < 8) {
  1753   0002C6  0E08               	movlw	8
  1754   0002C8  600D               	cpfslt	TAD_UART@i^0,c
  1755   0002CA  EF69  F001         	goto	u1831
  1756   0002CE  EF6B  F001         	goto	u1830
  1757   0002D2                     u1831:
  1758   0002D2  EF87  F001         	goto	l2975
  1759   0002D6                     u1830:
  1760   0002D6                     
  1761                           ;TAD_UART.C: 93:                 rc_data |= (PORTEbits.RE0 * 0x80);
  1762   0002D6  B084               	btfsc	132,0,c	;volatile
  1763   0002D8  EF70  F001         	goto	u1841
  1764   0002DC  EF73  F001         	goto	u1840
  1765   0002E0                     u1841:
  1766   0002E0  0E01               	movlw	1
  1767   0002E2  EF74  F001         	goto	u1846
  1768   0002E6                     u1840:
  1769   0002E6  0E00               	movlw	0
  1770   0002E8                     u1846:
  1771   0002E8  0D80               	mullw	128
  1772   0002EA  50F3               	movf	243,w,c
  1773   0002EC  0800               	sublw	0
  1774   0002EE  0800               	sublw	0
  1775   0002F0  0800               	sublw	0
  1776   0002F2  0800               	sublw	0
  1777   0002F4  0800               	sublw	0
  1778   0002F6  0800               	sublw	0
  1779   0002F8  0800               	sublw	0
  1780   0002FA  0800               	sublw	0
  1781   0002FC  0800               	sublw	0
  1782   0002FE  1216               	iorwf	_rc_data^0,f,c
  1783   000300                     
  1784                           ;TAD_UART.C: 94:                 rc_data >>= 1;
  1785   000300  90D8               	bcf	status,0,c
  1786   000302  3216               	rrcf	_rc_data^0,f,c
  1787   000304                     
  1788                           ;TAD_UART.C: 95:                 TI_ResetTics(rc);
  1789   000304  504E               	movf	_rc^0,w,c
  1790   000306  EC7E  F005         	call	_TI_ResetTics
  1791   00030A  EF4E  F001         	goto	l2957
  1792   00030E                     l2975:
  1793                           
  1794                           ;TAD_UART.C: 99:                 i = 0;
  1795   00030E  0E00               	movlw	0
  1796   000310  6E0D               	movwf	TAD_UART@i^0,c
  1797                           
  1798                           ;TAD_UART.C: 100:                 state = 4;
  1799   000312  0E04               	movlw	4
  1800   000314  6E0E               	movwf	TAD_UART@state^0,c
  1801                           
  1802                           ;TAD_UART.C: 101:                 flags = 0b00000001;
  1803   000316  0E01               	movlw	1
  1804   000318  6E15               	movwf	_flags^0,c
  1805   00031A  EFE1  F001         	goto	l709
  1806   00031E                     l2977:
  1807                           
  1808                           ;TAD_UART.C: 106:             if (TI_GetTics(rc)) {
  1809   00031E  504E               	movf	_rc^0,w,c
  1810   000320  ECEA  F004         	call	_TI_GetTics
  1811   000324  5056               	movf	?_TI_GetTics^0,w,c
  1812   000326  1057               	iorwf	(?_TI_GetTics+1)^0,w,c
  1813   000328  1058               	iorwf	(?_TI_GetTics+2)^0,w,c
  1814   00032A  1059               	iorwf	(?_TI_GetTics+3)^0,w,c
  1815   00032C  B4D8               	btfsc	status,2,c
  1816   00032E  EF9B  F001         	goto	u1851
  1817   000332  EF9D  F001         	goto	u1850
  1818   000336                     u1851:
  1819   000336  EFE1  F001         	goto	l709
  1820   00033A                     u1850:
  1821   00033A                     
  1822                           ;TAD_UART.C: 107:                 i++;
  1823   00033A  2A0D               	incf	TAD_UART@i^0,f,c
  1824                           
  1825                           ;TAD_UART.C: 108:                 state--;
  1826   00033C  060E               	decf	TAD_UART@state^0,f,c
  1827   00033E  EFE1  F001         	goto	l709
  1828   000342                     l2981:
  1829                           
  1830                           ;TAD_UART.C: 112:             if (rc_data == 0x06) {
  1831   000342  0E06               	movlw	6
  1832   000344  1816               	xorwf	_rc_data^0,w,c
  1833   000346  A4D8               	btfss	status,2,c
  1834   000348  EFA8  F001         	goto	u1861
  1835   00034C  EFAA  F001         	goto	u1860
  1836   000350                     u1861:
  1837   000350  EFAE  F001         	goto	l2985
  1838   000354                     u1860:
  1839   000354                     
  1840                           ;TAD_UART.C: 113:                 flag = 1;
  1841   000354  0E01               	movlw	1
  1842   000356  6E14               	movwf	_flag^0,c
  1843                           
  1844                           ;TAD_UART.C: 114:             }
  1845   000358  EFB9  F001         	goto	l707
  1846   00035C                     l2985:
  1847   00035C  0E15               	movlw	21
  1848   00035E  1816               	xorwf	_rc_data^0,w,c
  1849   000360  A4D8               	btfss	status,2,c
  1850   000362  EFB5  F001         	goto	u1871
  1851   000366  EFB7  F001         	goto	u1870
  1852   00036A                     u1871:
  1853   00036A  EFB9  F001         	goto	l707
  1854   00036E                     u1870:
  1855   00036E                     
  1856                           ;TAD_UART.C: 116:                 flag = 2;
  1857   00036E  0E02               	movlw	2
  1858   000370  6E14               	movwf	_flag^0,c
  1859   000372                     l707:
  1860                           
  1861                           ;TAD_UART.C: 118:             state = 0;
  1862   000372  0E00               	movlw	0
  1863   000374  6E0E               	movwf	TAD_UART@state^0,c
  1864   000376                     
  1865                           ;TAD_UART.C: 119:             TI_ResetTics(tx);
  1866   000376  504F               	movf	_tx^0,w,c
  1867   000378  EC7E  F005         	call	_TI_ResetTics
  1868                           
  1869                           ;TAD_UART.C: 120:             break;
  1870   00037C  EFE1  F001         	goto	l709
  1871   000380                     l2993:
  1872   000380  500E               	movf	TAD_UART@state^0,w,c
  1873   000382  6E63               	movwf	??_TAD_UART^0,c
  1874   000384  6A64               	clrf	(??_TAD_UART+1)^0,c
  1875                           
  1876                           ; Switch on 2 bytes has been partitioned into a top level switch of size 1, and 1 sub-sw
      +                          itches
  1877                           ; Switch size 1, requested type "simple"
  1878                           ; Number of cases is 1, Range of values is 0 to 0
  1879                           ; switch strategies available:
  1880                           ; Name         Instructions Cycles
  1881                           ; simple_byte            4     3 (average)
  1882                           ;	Chosen strategy is simple_byte
  1883   000386  5064               	movf	(??_TAD_UART+1)^0,w,c
  1884   000388  0A00               	xorlw	0	; case 0
  1885   00038A  B4D8               	btfsc	status,2,c
  1886   00038C  EFCA  F001         	goto	l3757
  1887   000390  EFE1  F001         	goto	l709
  1888   000394                     l3757:
  1889                           
  1890                           ; Switch size 1, requested type "simple"
  1891                           ; Number of cases is 5, Range of values is 0 to 4
  1892                           ; switch strategies available:
  1893                           ; Name         Instructions Cycles
  1894                           ; simple_byte           16     9 (average)
  1895                           ;	Chosen strategy is simple_byte
  1896   000394  5063               	movf	??_TAD_UART^0,w,c
  1897   000396  0A00               	xorlw	0	; case 0
  1898   000398  B4D8               	btfsc	status,2,c
  1899   00039A  EF42  F001         	goto	l695
  1900   00039E  0A01               	xorlw	1	; case 1
  1901   0003A0  B4D8               	btfsc	status,2,c
  1902   0003A2  EF51  F001         	goto	l2959
  1903   0003A6  0A03               	xorlw	3	; case 2
  1904   0003A8  B4D8               	btfsc	status,2,c
  1905   0003AA  EF63  F001         	goto	l2965
  1906   0003AE  0A01               	xorlw	1	; case 3
  1907   0003B0  B4D8               	btfsc	status,2,c
  1908   0003B2  EF8F  F001         	goto	l2977
  1909   0003B6  0A07               	xorlw	7	; case 4
  1910   0003B8  B4D8               	btfsc	status,2,c
  1911   0003BA  EFA1  F001         	goto	l2981
  1912   0003BE  EFE1  F001         	goto	l709
  1913   0003C2                     l709:
  1914   0003C2  0012               	return		;funcret
  1915   0003C4                     __end_of_TAD_UART:
  1916                           	callstack 0
  1917                           
  1918 ;; *************** function _LcInit *****************
  1919 ;; Defined at:
  1920 ;;		line 287 in file "LcTLCD.c"
  1921 ;; Parameters:    Size  Location     Type
  1922 ;;  rows            1    wreg     unsigned char 
  1923 ;;  columns         1   19[COMRAM] unsigned char 
  1924 ;; Auto vars:     Size  Location     Type
  1925 ;;  rows            1   20[COMRAM] unsigned char 
  1926 ;;  i               1   21[COMRAM] unsigned char 
  1927 ;; Return value:  Size  Location     Type
  1928 ;;                  1    wreg      void 
  1929 ;; Registers used:
  1930 ;;		wreg, fsr2l, fsr2h, status,2, status,0, prodl, prodh, cstack
  1931 ;; Tracked objects:
  1932 ;;		On entry : 0/0
  1933 ;;		On exit  : 0/0
  1934 ;;		Unchanged: 0/0
  1935 ;; Data sizes:     COMRAM   BANK0   BANK1
  1936 ;;      Params:         1       0       0
  1937 ;;      Locals:         2       0       0
  1938 ;;      Temps:          0       0       0
  1939 ;;      Totals:         3       0       0
  1940 ;;Total ram usage:        3 bytes
  1941 ;; Hardware stack levels used: 1
  1942 ;; Hardware stack levels required when called: 4
  1943 ;; This function calls:
  1944 ;;		_CantaIR
  1945 ;;		_EscriuPrimeraOrdre
  1946 ;;		_Espera
  1947 ;;		_TI_NewTimer
  1948 ;;		_TI_ResetTics
  1949 ;;		_WaitForBusy
  1950 ;; This function is called by:
  1951 ;;		_main
  1952 ;; This function uses a non-reentrant model
  1953 ;;
  1954                           
  1955                           	psect	text12
  1956   00056E                     __ptext12:
  1957                           	callstack 0
  1958   00056E                     _LcInit:
  1959                           	callstack 26
  1960                           
  1961                           ;incstack = 0
  1962                           ;LcInit@rows stored from wreg
  1963   00056E  6E6A               	movwf	LcInit@rows^0,c
  1964   000570                     
  1965                           ;LcTLCD.c: 293:  char i;;LcTLCD.c: 294:  TI_NewTimer(&Timer);
  1966   000570  0E52               	movlw	low _Timer
  1967   000572  6E56               	movwf	TI_NewTimer@TimerHandle^0,c
  1968   000574  EC95  F004         	call	_TI_NewTimer	;wreg free
  1969                           
  1970                           ;LcTLCD.c: 296:     TI_ResetTics(Timer);
  1971   000578  5052               	movf	_Timer^0,w,c
  1972   00057A  EC7E  F005         	call	_TI_ResetTics
  1973   00057E                     
  1974                           ;LcTLCD.c: 297:  Rows = rows; Columns = columns;
  1975   00057E  C06A  F02E         	movff	LcInit@rows,_Rows
  1976   000582  C069  F02D         	movff	LcInit@columns,_Columns
  1977   000586                     
  1978                           ;LcTLCD.c: 298:  RowAct = ColumnAct = 0;
  1979   000586  0E00               	movlw	0
  1980   000588  6E2B               	movwf	_ColumnAct^0,c
  1981   00058A  C02B  F02C         	movff	_ColumnAct,_RowAct
  1982   00058E                     
  1983                           ;LcTLCD.c: 299:  (TRISAbits.TRISA2 = TRISAbits.TRISA3 = TRISAbits.TRISA4 = 0);
  1984   00058E  9892               	bcf	146,4,c	;volatile
  1985   000590  9692               	bcf	146,3,c	;volatile
  1986   000592  9492               	bcf	146,2,c	;volatile
  1987   000594                     
  1988                           ;LcTLCD.c: 300:  for (i = 0; i < 2; i++) {
  1989   000594  0E00               	movlw	0
  1990   000596  6E6B               	movwf	LcInit@i^0,c
  1991   000598                     l2871:
  1992                           
  1993                           ;LcTLCD.c: 301:   Espera(Timer, 120 );
  1994   000598  0E78               	movlw	120
  1995   00059A  6E63               	movwf	Espera@ms^0,c
  1996   00059C  5052               	movf	_Timer^0,w,c
  1997   00059E  EC10  F005         	call	_Espera
  1998   0005A2                     
  1999                           ;LcTLCD.c: 304:   EscriuPrimeraOrdre(0x02 | 0x01);
  2000   0005A2  0E03               	movlw	3
  2001   0005A4  EC17  F003         	call	_EscriuPrimeraOrdre
  2002   0005A8                     
  2003                           ;LcTLCD.c: 305:   Espera(Timer, 10);
  2004   0005A8  0E0A               	movlw	10
  2005   0005AA  6E63               	movwf	Espera@ms^0,c
  2006   0005AC  5052               	movf	_Timer^0,w,c
  2007   0005AE  EC10  F005         	call	_Espera
  2008                           
  2009                           ;LcTLCD.c: 306:   EscriuPrimeraOrdre(0x02 | 0x01);
  2010   0005B2  0E03               	movlw	3
  2011   0005B4  EC17  F003         	call	_EscriuPrimeraOrdre
  2012   0005B8                     
  2013                           ;LcTLCD.c: 307:   Espera(Timer, 2);
  2014   0005B8  0E02               	movlw	2
  2015   0005BA  6E63               	movwf	Espera@ms^0,c
  2016   0005BC  5052               	movf	_Timer^0,w,c
  2017   0005BE  EC10  F005         	call	_Espera
  2018   0005C2                     
  2019                           ;LcTLCD.c: 308:   EscriuPrimeraOrdre(0x02 | 0x01);
  2020   0005C2  0E03               	movlw	3
  2021   0005C4  EC17  F003         	call	_EscriuPrimeraOrdre
  2022                           
  2023                           ;LcTLCD.c: 309:   Espera(Timer, 2);
  2024   0005C8  0E02               	movlw	2
  2025   0005CA  6E63               	movwf	Espera@ms^0,c
  2026   0005CC  5052               	movf	_Timer^0,w,c
  2027   0005CE  EC10  F005         	call	_Espera
  2028   0005D2                     
  2029                           ;LcTLCD.c: 312:   EscriuPrimeraOrdre(0x02);
  2030   0005D2  0E02               	movlw	2
  2031   0005D4  EC17  F003         	call	_EscriuPrimeraOrdre
  2032   0005D8                     
  2033                           ;LcTLCD.c: 313:   Espera(Timer, 2);
  2034   0005D8  0E02               	movlw	2
  2035   0005DA  6E63               	movwf	Espera@ms^0,c
  2036   0005DC  5052               	movf	_Timer^0,w,c
  2037   0005DE  EC10  F005         	call	_Espera
  2038                           
  2039                           ;LcTLCD.c: 314:   CantaIR(0x20 | 0x08);
  2040   0005E2  0E28               	movlw	40
  2041   0005E4  EC65  F005         	call	_CantaIR
  2042   0005E8                     
  2043                           ;LcTLCD.c: 317:   WaitForBusy(); CantaIR(0x08);
  2044   0005E8  EC65  F004         	call	_WaitForBusy	;wreg free
  2045   0005EC  0E08               	movlw	8
  2046   0005EE  EC65  F005         	call	_CantaIR
  2047                           
  2048                           ;LcTLCD.c: 318:   WaitForBusy(); CantaIR(0x01);
  2049   0005F2  EC65  F004         	call	_WaitForBusy	;wreg free
  2050   0005F6  0E01               	movlw	1
  2051   0005F8  EC65  F005         	call	_CantaIR
  2052   0005FC                     
  2053                           ;LcTLCD.c: 319:   Espera(Timer,3);
  2054   0005FC  0E03               	movlw	3
  2055   0005FE  6E63               	movwf	Espera@ms^0,c
  2056   000600  5052               	movf	_Timer^0,w,c
  2057   000602  EC10  F005         	call	_Espera
  2058   000606                     
  2059                           ;LcTLCD.c: 320:   WaitForBusy(); CantaIR(0x04 | 0x02);
  2060   000606  EC65  F004         	call	_WaitForBusy	;wreg free
  2061   00060A  0E06               	movlw	6
  2062   00060C  EC65  F005         	call	_CantaIR
  2063                           
  2064                           ;LcTLCD.c: 321:   WaitForBusy(); CantaIR(0x08 | 0x04 | 0x02 | 0x01);
  2065   000610  EC65  F004         	call	_WaitForBusy	;wreg free
  2066   000614  0E0F               	movlw	15
  2067   000616  EC65  F005         	call	_CantaIR
  2068   00061A                     
  2069                           ;LcTLCD.c: 322:  }
  2070   00061A  2A6B               	incf	LcInit@i^0,f,c
  2071   00061C  0E01               	movlw	1
  2072   00061E  646B               	cpfsgt	LcInit@i^0,c
  2073   000620  EF14  F003         	goto	u1761
  2074   000624  EF16  F003         	goto	u1760
  2075   000628                     u1761:
  2076   000628  EFCC  F002         	goto	l2871
  2077   00062C                     u1760:
  2078   00062C  0012               	return		;funcret
  2079   00062E                     __end_of_LcInit:
  2080                           	callstack 0
  2081                           
  2082 ;; *************** function _TI_NewTimer *****************
  2083 ;; Defined at:
  2084 ;;		line 45 in file "TAD_TIMER.C"
  2085 ;; Parameters:    Size  Location     Type
  2086 ;;  TimerHandle     1    0[COMRAM] PTR unsigned char 
  2087 ;;		 -> rc(1), tx(1), t@TAD_WIFI$F1219(1), t@TAD_MENU$F958(1), 
  2088 ;;		 -> Timer(1), t@TAD_SPEAKER$F528(1), t1(1), t(1), 
  2089 ;; Auto vars:     Size  Location     Type
  2090 ;;  Comptador       1    2[COMRAM] unsigned char 
  2091 ;; Return value:  Size  Location     Type
  2092 ;;                  1    wreg      unsigned char 
  2093 ;; Registers used:
  2094 ;;		wreg, fsr2l, fsr2h, status,2, status,0, prodl, prodh
  2095 ;; Tracked objects:
  2096 ;;		On entry : 0/0
  2097 ;;		On exit  : 0/0
  2098 ;;		Unchanged: 0/0
  2099 ;; Data sizes:     COMRAM   BANK0   BANK1
  2100 ;;      Params:         1       0       0
  2101 ;;      Locals:         1       0       0
  2102 ;;      Temps:          1       0       0
  2103 ;;      Totals:         3       0       0
  2104 ;;Total ram usage:        3 bytes
  2105 ;; Hardware stack levels used: 1
  2106 ;; Hardware stack levels required when called: 2
  2107 ;; This function calls:
  2108 ;;		Nothing
  2109 ;; This function is called by:
  2110 ;;		_init_KEYB
  2111 ;;		_init_SPK
  2112 ;;		_LcInit
  2113 ;;		_init_Menu
  2114 ;;		_init_WIFI
  2115 ;;		_init_UART
  2116 ;; This function uses a non-reentrant model
  2117 ;;
  2118                           
  2119                           	psect	text13
  2120   00092A                     __ptext13:
  2121                           	callstack 0
  2122   00092A                     _TI_NewTimer:
  2123                           	callstack 27
  2124   00092A                     
  2125                           ;TAD_TIMER.C: 46:  unsigned char Comptador=0;
  2126   00092A  0E00               	movlw	0
  2127   00092C  6E58               	movwf	TI_NewTimer@Comptador^0,c
  2128                           
  2129                           ;TAD_TIMER.C: 47:  while (Timers[Comptador].Busy==1) {
  2130   00092E  EFA5  F004         	goto	l2691
  2131   000932                     l2687:
  2132                           
  2133                           ;TAD_TIMER.C: 48:   if (++Comptador == 15) return (0);
  2134   000932  2A58               	incf	TI_NewTimer@Comptador^0,f,c
  2135   000934  0E0F               	movlw	15
  2136   000936  1858               	xorwf	TI_NewTimer@Comptador^0,w,c
  2137   000938  A4D8               	btfss	status,2,c
  2138   00093A  EFA1  F004         	goto	u1641
  2139   00093E  EFA3  F004         	goto	u1640
  2140   000942                     u1641:
  2141   000942  EFA5  F004         	goto	l2691
  2142   000946                     u1640:
  2143   000946  EFC0  F004         	goto	l105
  2144   00094A                     l2691:
  2145                           
  2146                           ;TAD_TIMER.C: 47:  while (Timers[Comptador].Busy==1) {
  2147   00094A  5058               	movf	TI_NewTimer@Comptador^0,w,c
  2148   00094C  0D05               	mullw	5
  2149   00094E  50F3               	movf	243,w,c
  2150   000950  0F84               	addlw	low (_Timers+4)
  2151   000952  6ED9               	movwf	fsr2l,c
  2152   000954  6ADA               	clrf	fsr2h,c
  2153   000956  04DE               	decf	postinc2,w,c
  2154   000958  B4D8               	btfsc	status,2,c
  2155   00095A  EFB1  F004         	goto	u1651
  2156   00095E  EFB3  F004         	goto	u1650
  2157   000962                     u1651:
  2158   000962  EF99  F004         	goto	l2687
  2159   000966                     u1650:
  2160   000966                     
  2161                           ;TAD_TIMER.C: 50:  Timers[Comptador].Busy=1;
  2162   000966  5058               	movf	TI_NewTimer@Comptador^0,w,c
  2163   000968  0D05               	mullw	5
  2164   00096A  50F3               	movf	243,w,c
  2165   00096C  0F84               	addlw	low (_Timers+4)
  2166   00096E  6ED9               	movwf	fsr2l,c
  2167   000970  6ADA               	clrf	fsr2h,c
  2168   000972  0E01               	movlw	1
  2169   000974  6EDF               	movwf	indf2,c
  2170   000976                     
  2171                           ;TAD_TIMER.C: 51:  *TimerHandle=Comptador;
  2172   000976  5056               	movf	TI_NewTimer@TimerHandle^0,w,c
  2173   000978  6ED9               	movwf	fsr2l,c
  2174   00097A  6ADA               	clrf	fsr2h,c
  2175   00097C  C058  FFDF         	movff	TI_NewTimer@Comptador,indf2
  2176   000980                     l105:
  2177   000980  0012               	return		;funcret
  2178   000982                     __end_of_TI_NewTimer:
  2179                           	callstack 0
  2180                           
  2181 ;; *************** function _EscriuPrimeraOrdre *****************
  2182 ;; Defined at:
  2183 ;;		line 271 in file "LcTLCD.c"
  2184 ;; Parameters:    Size  Location     Type
  2185 ;;  ordre           1    wreg     unsigned char 
  2186 ;; Auto vars:     Size  Location     Type
  2187 ;;  ordre           1    1[COMRAM] unsigned char 
  2188 ;; Return value:  Size  Location     Type
  2189 ;;                  1    wreg      void 
  2190 ;; Registers used:
  2191 ;;		wreg, status,2, status,0
  2192 ;; Tracked objects:
  2193 ;;		On entry : 0/0
  2194 ;;		On exit  : 0/0
  2195 ;;		Unchanged: 0/0
  2196 ;; Data sizes:     COMRAM   BANK0   BANK1
  2197 ;;      Params:         0       0       0
  2198 ;;      Locals:         1       0       0
  2199 ;;      Temps:          1       0       0
  2200 ;;      Totals:         2       0       0
  2201 ;;Total ram usage:        2 bytes
  2202 ;; Hardware stack levels used: 1
  2203 ;; Hardware stack levels required when called: 2
  2204 ;; This function calls:
  2205 ;;		Nothing
  2206 ;; This function is called by:
  2207 ;;		_LcInit
  2208 ;; This function uses a non-reentrant model
  2209 ;;
  2210                           
  2211                           	psect	text14
  2212   00062E                     __ptext14:
  2213                           	callstack 0
  2214   00062E                     _EscriuPrimeraOrdre:
  2215                           	callstack 27
  2216                           
  2217                           ;incstack = 0
  2218                           ;EscriuPrimeraOrdre@ordre stored from wreg
  2219   00062E  6E57               	movwf	EscriuPrimeraOrdre@ordre^0,c
  2220   000630                     
  2221                           ;LcTLCD.c: 273:  (TRISCbits.TRISC0 = TRISCbits.TRISC1 = TRISCbits.TRISC2 = TRISCbits.TRI
      +                          SC3 = 0); (LATAbits.LATA2 = 0); (LATAbits.LATA3 = 0);
  2222   000630  9694               	bcf	148,3,c	;volatile
  2223   000632  9494               	bcf	148,2,c	;volatile
  2224   000634  9294               	bcf	148,1,c	;volatile
  2225   000636  9094               	bcf	148,0,c	;volatile
  2226   000638  9489               	bcf	137,2,c	;volatile
  2227   00063A  9689               	bcf	137,3,c	;volatile
  2228                           
  2229                           ;LcTLCD.c: 274:  (LATAbits.LATA4 = 1); (LATAbits.LATA4 = 1);
  2230   00063C  8889               	bsf	137,4,c	;volatile
  2231   00063E  8889               	bsf	137,4,c	;volatile
  2232   000640                     
  2233                           ;LcTLCD.c: 275:   (LATCbits.LATC3 = (ordre & 0x08 ? 1 : 0));
  2234   000640  B657               	btfsc	EscriuPrimeraOrdre@ordre^0,3,c
  2235   000642  EF25  F003         	goto	u281
  2236   000646  EF29  F003         	goto	u280
  2237   00064A                     u281:
  2238   00064A  6A56               	clrf	??_EscriuPrimeraOrdre^0,c
  2239   00064C  2A56               	incf	??_EscriuPrimeraOrdre^0,f,c
  2240   00064E  EF2A  F003         	goto	u298
  2241   000652                     u280:
  2242   000652  6A56               	clrf	??_EscriuPrimeraOrdre^0,c
  2243   000654                     u298:
  2244   000654  4656               	rlncf	??_EscriuPrimeraOrdre^0,f,c
  2245   000656  4656               	rlncf	??_EscriuPrimeraOrdre^0,f,c
  2246   000658  4656               	rlncf	??_EscriuPrimeraOrdre^0,f,c
  2247   00065A  508B               	movf	139,w,c	;volatile
  2248   00065C  1856               	xorwf	??_EscriuPrimeraOrdre^0,w,c
  2249   00065E  0BF7               	andlw	-9
  2250   000660  1856               	xorwf	??_EscriuPrimeraOrdre^0,w,c
  2251   000662  6E8B               	movwf	139,c	;volatile
  2252                           
  2253                           ;LcTLCD.c: 276:   (LATCbits.LATC2 = (ordre & 0x04 ? 1 : 0));
  2254   000664  B457               	btfsc	EscriuPrimeraOrdre@ordre^0,2,c
  2255   000666  EF37  F003         	goto	u301
  2256   00066A  EF3B  F003         	goto	u300
  2257   00066E                     u301:
  2258   00066E  6A56               	clrf	??_EscriuPrimeraOrdre^0,c
  2259   000670  2A56               	incf	??_EscriuPrimeraOrdre^0,f,c
  2260   000672  EF3C  F003         	goto	u318
  2261   000676                     u300:
  2262   000676  6A56               	clrf	??_EscriuPrimeraOrdre^0,c
  2263   000678                     u318:
  2264   000678  4656               	rlncf	??_EscriuPrimeraOrdre^0,f,c
  2265   00067A  4656               	rlncf	??_EscriuPrimeraOrdre^0,f,c
  2266   00067C  508B               	movf	139,w,c	;volatile
  2267   00067E  1856               	xorwf	??_EscriuPrimeraOrdre^0,w,c
  2268   000680  0BFB               	andlw	-5
  2269   000682  1856               	xorwf	??_EscriuPrimeraOrdre^0,w,c
  2270   000684  6E8B               	movwf	139,c	;volatile
  2271                           
  2272                           ;LcTLCD.c: 277:   (LATCbits.LATC1 = (ordre & 0x02 ? 1 : 0));
  2273   000686  B257               	btfsc	EscriuPrimeraOrdre@ordre^0,1,c
  2274   000688  EF48  F003         	goto	u321
  2275   00068C  EF4C  F003         	goto	u320
  2276   000690                     u321:
  2277   000690  6A56               	clrf	??_EscriuPrimeraOrdre^0,c
  2278   000692  2A56               	incf	??_EscriuPrimeraOrdre^0,f,c
  2279   000694  EF4D  F003         	goto	u338
  2280   000698                     u320:
  2281   000698  6A56               	clrf	??_EscriuPrimeraOrdre^0,c
  2282   00069A                     u338:
  2283   00069A  4656               	rlncf	??_EscriuPrimeraOrdre^0,f,c
  2284   00069C  508B               	movf	139,w,c	;volatile
  2285   00069E  1856               	xorwf	??_EscriuPrimeraOrdre^0,w,c
  2286   0006A0  0BFD               	andlw	-3
  2287   0006A2  1856               	xorwf	??_EscriuPrimeraOrdre^0,w,c
  2288   0006A4  6E8B               	movwf	139,c	;volatile
  2289                           
  2290                           ;LcTLCD.c: 278:   (LATCbits.LATC0 = (ordre & 0x01 ? 1 : 0));
  2291   0006A6  B057               	btfsc	EscriuPrimeraOrdre@ordre^0,0,c
  2292   0006A8  EF58  F003         	goto	u341
  2293   0006AC  EF5C  F003         	goto	u340
  2294   0006B0                     u341:
  2295   0006B0  6A56               	clrf	??_EscriuPrimeraOrdre^0,c
  2296   0006B2  2A56               	incf	??_EscriuPrimeraOrdre^0,f,c
  2297   0006B4  EF5D  F003         	goto	u358
  2298   0006B8                     u340:
  2299   0006B8  6A56               	clrf	??_EscriuPrimeraOrdre^0,c
  2300   0006BA                     u358:
  2301   0006BA  508B               	movf	139,w,c	;volatile
  2302   0006BC  1856               	xorwf	??_EscriuPrimeraOrdre^0,w,c
  2303   0006BE  0BFE               	andlw	-2
  2304   0006C0  1856               	xorwf	??_EscriuPrimeraOrdre^0,w,c
  2305   0006C2  6E8B               	movwf	139,c	;volatile
  2306   0006C4                     
  2307                           ;LcTLCD.c: 279:  (LATAbits.LATA4 = 0);
  2308   0006C4  9889               	bcf	137,4,c	;volatile
  2309   0006C6  0012               	return		;funcret
  2310   0006C8                     __end_of_EscriuPrimeraOrdre:
  2311                           	callstack 0
  2312                           
  2313 ;; *************** function _LcGotoXY *****************
  2314 ;; Defined at:
  2315 ;;		line 97 in file "LcTLCD.c"
  2316 ;; Parameters:    Size  Location     Type
  2317 ;;  Column          1    wreg     unsigned char 
  2318 ;;  Row             1   14[COMRAM] unsigned char 
  2319 ;; Auto vars:     Size  Location     Type
  2320 ;;  Column          1   20[COMRAM] unsigned char 
  2321 ;;  Fisics          1   19[COMRAM] unsigned char 
  2322 ;; Return value:  Size  Location     Type
  2323 ;;                  1    wreg      void 
  2324 ;; Registers used:
  2325 ;;		wreg, fsr2l, fsr2h, status,2, status,0, prodl, prodh, cstack
  2326 ;; Tracked objects:
  2327 ;;		On entry : 0/0
  2328 ;;		On exit  : 0/0
  2329 ;;		Unchanged: 0/0
  2330 ;; Data sizes:     COMRAM   BANK0   BANK1
  2331 ;;      Params:         1       0       0
  2332 ;;      Locals:         4       0       0
  2333 ;;      Temps:          2       0       0
  2334 ;;      Totals:         7       0       0
  2335 ;;Total ram usage:        7 bytes
  2336 ;; Hardware stack levels used: 1
  2337 ;; Hardware stack levels required when called: 4
  2338 ;; This function calls:
  2339 ;;		_CantaIR
  2340 ;;		_WaitForBusy
  2341 ;; This function is called by:
  2342 ;;		_main
  2343 ;;		_LcPutChar
  2344 ;;		_TAD_LcD
  2345 ;;		_printMarquesina
  2346 ;;		_TAD_Menu
  2347 ;; This function uses a non-reentrant model
  2348 ;;
  2349                           
  2350                           	psect	text15
  2351   0003C4                     __ptext15:
  2352                           	callstack 0
  2353   0003C4                     _LcGotoXY:
  2354                           	callstack 26
  2355                           
  2356                           ;incstack = 0
  2357                           ;LcGotoXY@Column stored from wreg
  2358   0003C4  6E6A               	movwf	LcGotoXY@Column^0,c
  2359   0003C6                     
  2360                           ;LcTLCD.c: 101:  char Fisics;;LcTLCD.c: 103:  switch (Rows) {
  2361   0003C6  EF2B  F002         	goto	l2937
  2362   0003CA                     l2915:
  2363                           
  2364                           ;LcTLCD.c: 105:    Fisics = Column + (!Row ? 0 : 0x40); break;
  2365   0003CA  5064               	movf	LcGotoXY@Row^0,w,c
  2366   0003CC  B4D8               	btfsc	status,2,c
  2367   0003CE  EFEB  F001         	goto	u1771
  2368   0003D2  EFED  F001         	goto	u1770
  2369   0003D6                     u1771:
  2370   0003D6  EFF3  F001         	goto	l2919
  2371   0003DA                     u1770:
  2372   0003DA  0E00               	movlw	0
  2373   0003DC  6E68               	movwf	(_LcGotoXY$783+1)^0,c
  2374   0003DE  0E40               	movlw	64
  2375   0003E0  6E67               	movwf	_LcGotoXY$783^0,c
  2376   0003E2  EFF7  F001         	goto	l2921
  2377   0003E6                     l2919:
  2378   0003E6  0E00               	movlw	0
  2379   0003E8  6E68               	movwf	(_LcGotoXY$783+1)^0,c
  2380   0003EA  0E00               	movlw	0
  2381   0003EC  6E67               	movwf	_LcGotoXY$783^0,c
  2382   0003EE                     l2921:
  2383   0003EE  506A               	movf	LcGotoXY@Column^0,w,c
  2384   0003F0  2467               	addwf	_LcGotoXY$783^0,w,c
  2385   0003F2  6E69               	movwf	LcGotoXY@Fisics^0,c
  2386   0003F4  EF44  F002         	goto	l2939
  2387   0003F8                     l320:
  2388                           
  2389                           ;LcTLCD.c: 107:    Fisics = Column;
  2390   0003F8  C06A  F069         	movff	LcGotoXY@Column,LcGotoXY@Fisics
  2391   0003FC                     
  2392                           ;LcTLCD.c: 108:    if (Row == 1) Fisics += 0x40; else
  2393   0003FC  0464               	decf	LcGotoXY@Row^0,w,c
  2394   0003FE  A4D8               	btfss	status,2,c
  2395   000400  EF04  F002         	goto	u1781
  2396   000404  EF06  F002         	goto	u1780
  2397   000408                     u1781:
  2398   000408  EF0A  F002         	goto	l2927
  2399   00040C                     u1780:
  2400   00040C  0E40               	movlw	64
  2401   00040E  2669               	addwf	LcGotoXY@Fisics^0,f,c
  2402   000410  EF44  F002         	goto	l2939
  2403   000414                     l2927:
  2404                           
  2405                           ;LcTLCD.c: 109:    if (Row == 2) Fisics += Columns; else
  2406   000414  0E02               	movlw	2
  2407   000416  1864               	xorwf	LcGotoXY@Row^0,w,c
  2408   000418  A4D8               	btfss	status,2,c
  2409   00041A  EF11  F002         	goto	u1791
  2410   00041E  EF13  F002         	goto	u1790
  2411   000422                     u1791:
  2412   000422  EF17  F002         	goto	l2931
  2413   000426                     u1790:
  2414   000426  502D               	movf	_Columns^0,w,c
  2415   000428  2669               	addwf	LcGotoXY@Fisics^0,f,c
  2416   00042A  EF44  F002         	goto	l2939
  2417   00042E                     l2931:
  2418                           
  2419                           ;LcTLCD.c: 110:    if (Row == 3) Fisics += 0x40+Columns;
  2420   00042E  0E03               	movlw	3
  2421   000430  1864               	xorwf	LcGotoXY@Row^0,w,c
  2422   000432  A4D8               	btfss	status,2,c
  2423   000434  EF1E  F002         	goto	u1801
  2424   000438  EF20  F002         	goto	u1800
  2425   00043C                     u1801:
  2426   00043C  EF25  F002         	goto	l322
  2427   000440                     u1800:
  2428   000440  502D               	movf	_Columns^0,w,c
  2429   000442  0F40               	addlw	64
  2430   000444  2669               	addwf	LcGotoXY@Fisics^0,f,c
  2431   000446  EF44  F002         	goto	l2939
  2432   00044A                     l322:
  2433                           
  2434                           ;LcTLCD.c: 111:    break;
  2435   00044A  EF44  F002         	goto	l2939
  2436   00044E                     l327:
  2437                           
  2438                           ;LcTLCD.c: 114:    Fisics = Column; break;
  2439   00044E  C06A  F069         	movff	LcGotoXY@Column,LcGotoXY@Fisics
  2440   000452  EF44  F002         	goto	l2939
  2441   000456                     l2937:
  2442   000456  502E               	movf	_Rows^0,w,c
  2443   000458  6E65               	movwf	??_LcGotoXY^0,c
  2444   00045A  6A66               	clrf	(??_LcGotoXY+1)^0,c
  2445                           
  2446                           ; Switch on 2 bytes has been partitioned into a top level switch of size 1, and 1 sub-sw
      +                          itches
  2447                           ; Switch size 1, requested type "simple"
  2448                           ; Number of cases is 1, Range of values is 0 to 0
  2449                           ; switch strategies available:
  2450                           ; Name         Instructions Cycles
  2451                           ; simple_byte            4     3 (average)
  2452                           ;	Chosen strategy is simple_byte
  2453   00045C  5066               	movf	(??_LcGotoXY+1)^0,w,c
  2454   00045E  0A00               	xorlw	0	; case 0
  2455   000460  B4D8               	btfsc	status,2,c
  2456   000462  EF35  F002         	goto	l3759
  2457   000466  EF27  F002         	goto	l327
  2458   00046A                     l3759:
  2459                           
  2460                           ; Switch size 1, requested type "simple"
  2461                           ; Number of cases is 3, Range of values is 1 to 4
  2462                           ; switch strategies available:
  2463                           ; Name         Instructions Cycles
  2464                           ; simple_byte           10     6 (average)
  2465                           ;	Chosen strategy is simple_byte
  2466   00046A  5065               	movf	??_LcGotoXY^0,w,c
  2467   00046C  0A01               	xorlw	1	; case 1
  2468   00046E  B4D8               	btfsc	status,2,c
  2469   000470  EF27  F002         	goto	l327
  2470   000474  0A03               	xorlw	3	; case 2
  2471   000476  B4D8               	btfsc	status,2,c
  2472   000478  EFE5  F001         	goto	l2915
  2473   00047C  0A06               	xorlw	6	; case 4
  2474   00047E  B4D8               	btfsc	status,2,c
  2475   000480  EFFC  F001         	goto	l320
  2476   000484  EF27  F002         	goto	l327
  2477   000488                     l2939:
  2478                           
  2479                           ;LcTLCD.c: 117:  WaitForBusy();
  2480   000488  EC65  F004         	call	_WaitForBusy	;wreg free
  2481   00048C                     
  2482                           ;LcTLCD.c: 118:  CantaIR(0x80 | Fisics);
  2483   00048C  5069               	movf	LcGotoXY@Fisics^0,w,c
  2484   00048E  0980               	iorlw	128
  2485   000490  EC65  F005         	call	_CantaIR
  2486   000494                     
  2487                           ;LcTLCD.c: 120:  RowAct = Row;
  2488   000494  C064  F02C         	movff	LcGotoXY@Row,_RowAct
  2489   000498                     
  2490                           ;LcTLCD.c: 121:  ColumnAct = Column;
  2491   000498  C06A  F02B         	movff	LcGotoXY@Column,_ColumnAct
  2492   00049C  0012               	return		;funcret
  2493   00049E                     __end_of_LcGotoXY:
  2494                           	callstack 0
  2495                           
  2496 ;; *************** function _LcCursorOff *****************
  2497 ;; Defined at:
  2498 ;;		line 90 in file "LcTLCD.c"
  2499 ;; Parameters:    Size  Location     Type
  2500 ;;		None
  2501 ;; Auto vars:     Size  Location     Type
  2502 ;;		None
  2503 ;; Return value:  Size  Location     Type
  2504 ;;                  1    wreg      void 
  2505 ;; Registers used:
  2506 ;;		wreg, fsr2l, fsr2h, status,2, status,0, prodl, prodh, cstack
  2507 ;; Tracked objects:
  2508 ;;		On entry : 0/0
  2509 ;;		On exit  : 0/0
  2510 ;;		Unchanged: 0/0
  2511 ;; Data sizes:     COMRAM   BANK0   BANK1
  2512 ;;      Params:         0       0       0
  2513 ;;      Locals:         0       0       0
  2514 ;;      Temps:          0       0       0
  2515 ;;      Totals:         0       0       0
  2516 ;;Total ram usage:        0 bytes
  2517 ;; Hardware stack levels used: 1
  2518 ;; Hardware stack levels required when called: 4
  2519 ;; This function calls:
  2520 ;;		_CantaIR
  2521 ;;		_WaitForBusy
  2522 ;; This function is called by:
  2523 ;;		_main
  2524 ;; This function uses a non-reentrant model
  2525 ;;
  2526                           
  2527                           	psect	text16
  2528   000BD8                     __ptext16:
  2529                           	callstack 0
  2530   000BD8                     _LcCursorOff:
  2531                           	callstack 26
  2532   000BD8                     
  2533                           ;LcTLCD.c: 93:  WaitForBusy();
  2534   000BD8  EC65  F004         	call	_WaitForBusy	;wreg free
  2535   000BDC                     
  2536                           ;LcTLCD.c: 94:  CantaIR(0x08 | 0x04);
  2537   000BDC  0E0C               	movlw	12
  2538   000BDE  EC65  F005         	call	_CantaIR
  2539   000BE2  0012               	return		;funcret
  2540   000BE4                     __end_of_LcCursorOff:
  2541                           	callstack 0
  2542                           
  2543 ;; *************** function _LcClear *****************
  2544 ;; Defined at:
  2545 ;;		line 76 in file "LcTLCD.c"
  2546 ;; Parameters:    Size  Location     Type
  2547 ;;		None
  2548 ;; Auto vars:     Size  Location     Type
  2549 ;;		None
  2550 ;; Return value:  Size  Location     Type
  2551 ;;                  1    wreg      void 
  2552 ;; Registers used:
  2553 ;;		wreg, fsr2l, fsr2h, status,2, status,0, prodl, prodh, cstack
  2554 ;; Tracked objects:
  2555 ;;		On entry : 0/0
  2556 ;;		On exit  : 0/0
  2557 ;;		Unchanged: 0/0
  2558 ;; Data sizes:     COMRAM   BANK0   BANK1
  2559 ;;      Params:         0       0       0
  2560 ;;      Locals:         0       0       0
  2561 ;;      Temps:          0       0       0
  2562 ;;      Totals:         0       0       0
  2563 ;;Total ram usage:        0 bytes
  2564 ;; Hardware stack levels used: 1
  2565 ;; Hardware stack levels required when called: 4
  2566 ;; This function calls:
  2567 ;;		_CantaIR
  2568 ;;		_Espera
  2569 ;;		_WaitForBusy
  2570 ;; This function is called by:
  2571 ;;		_main
  2572 ;;		_TAD_LcD
  2573 ;;		_TAD_Menu
  2574 ;; This function uses a non-reentrant model
  2575 ;;
  2576                           
  2577                           	psect	text17
  2578   000B5E                     __ptext17:
  2579                           	callstack 0
  2580   000B5E                     _LcClear:
  2581                           	callstack 26
  2582   000B5E                     
  2583                           ;LcTLCD.c: 79:  WaitForBusy(); CantaIR(0x01);
  2584   000B5E  EC65  F004         	call	_WaitForBusy	;wreg free
  2585   000B62  0E01               	movlw	1
  2586   000B64  EC65  F005         	call	_CantaIR
  2587   000B68                     
  2588                           ;LcTLCD.c: 80:  Espera(Timer, 6);
  2589   000B68  0E06               	movlw	6
  2590   000B6A  6E63               	movwf	Espera@ms^0,c
  2591   000B6C  5052               	movf	_Timer^0,w,c
  2592   000B6E  EC10  F005         	call	_Espera
  2593   000B72  0012               	return		;funcret
  2594   000B74                     __end_of_LcClear:
  2595                           	callstack 0
  2596                           
  2597 ;; *************** function _WaitForBusy *****************
  2598 ;; Defined at:
  2599 ;;		line 252 in file "LcTLCD.c"
  2600 ;; Parameters:    Size  Location     Type
  2601 ;;		None
  2602 ;; Auto vars:     Size  Location     Type
  2603 ;;  Busy            1   13[COMRAM] unsigned char 
  2604 ;; Return value:  Size  Location     Type
  2605 ;;                  1    wreg      void 
  2606 ;; Registers used:
  2607 ;;		wreg, fsr2l, fsr2h, status,2, status,0, prodl, prodh, cstack
  2608 ;; Tracked objects:
  2609 ;;		On entry : 0/0
  2610 ;;		On exit  : 0/0
  2611 ;;		Unchanged: 0/0
  2612 ;; Data sizes:     COMRAM   BANK0   BANK1
  2613 ;;      Params:         0       0       0
  2614 ;;      Locals:         1       0       0
  2615 ;;      Temps:          0       0       0
  2616 ;;      Totals:         1       0       0
  2617 ;;Total ram usage:        1 bytes
  2618 ;; Hardware stack levels used: 1
  2619 ;; Hardware stack levels required when called: 3
  2620 ;; This function calls:
  2621 ;;		_TI_GetTics
  2622 ;;		_TI_ResetTics
  2623 ;; This function is called by:
  2624 ;;		_LcClear
  2625 ;;		_LcCursorOff
  2626 ;;		_LcGotoXY
  2627 ;;		_LcInit
  2628 ;;		_LcPutChar
  2629 ;; This function uses a non-reentrant model
  2630 ;;
  2631                           
  2632                           	psect	text18
  2633   0008CA                     __ptext18:
  2634                           	callstack 0
  2635   0008CA                     _WaitForBusy:
  2636                           	callstack 26
  2637   0008CA                     
  2638                           ;LcTLCD.c: 253:     char Busy;;LcTLCD.c: 254:  (TRISCbits.TRISC0 = TRISCbits.TRISC1 = TR
      +                          ISCbits.TRISC2 = TRISCbits.TRISC3 = 1);
  2639   0008CA  8694               	bsf	148,3,c	;volatile
  2640   0008CC  8494               	bsf	148,2,c	;volatile
  2641   0008CE  8294               	bsf	148,1,c	;volatile
  2642   0008D0  8094               	bsf	148,0,c	;volatile
  2643                           
  2644                           ;LcTLCD.c: 255:  (LATAbits.LATA2 = 0);
  2645   0008D2  9489               	bcf	137,2,c	;volatile
  2646                           
  2647                           ;LcTLCD.c: 256:  (LATAbits.LATA3 = 1);
  2648   0008D4  8689               	bsf	137,3,c	;volatile
  2649   0008D6                     
  2650                           ;LcTLCD.c: 257:  TI_ResetTics(Timer);
  2651   0008D6  5052               	movf	_Timer^0,w,c
  2652   0008D8  EC7E  F005         	call	_TI_ResetTics
  2653   0008DC                     l2757:
  2654                           
  2655                           ;LcTLCD.c: 259:   (LATAbits.LATA4 = 1);(LATAbits.LATA4 = 1);
  2656   0008DC  8889               	bsf	137,4,c	;volatile
  2657   0008DE  8889               	bsf	137,4,c	;volatile
  2658   0008E0                     
  2659                           ;LcTLCD.c: 260:   Busy = (PORTCbits.RC3);
  2660   0008E0  0E00               	movlw	0
  2661   0008E2  B682               	btfsc	130,3,c	;volatile
  2662   0008E4  0E01               	movlw	1
  2663   0008E6  6E63               	movwf	WaitForBusy@Busy^0,c
  2664   0008E8                     
  2665                           ;LcTLCD.c: 261:   (LATAbits.LATA4 = 0);
  2666   0008E8  9889               	bcf	137,4,c	;volatile
  2667   0008EA                     
  2668                           ;LcTLCD.c: 262:   (LATAbits.LATA4 = 0);
  2669   0008EA  9889               	bcf	137,4,c	;volatile
  2670   0008EC                     
  2671                           ;LcTLCD.c: 263:   (LATAbits.LATA4 = 1);(LATAbits.LATA4 = 1);
  2672   0008EC  8889               	bsf	137,4,c	;volatile
  2673   0008EE  8889               	bsf	137,4,c	;volatile
  2674   0008F0                     
  2675                           ;LcTLCD.c: 265:   (LATAbits.LATA4 = 0);
  2676   0008F0  9889               	bcf	137,4,c	;volatile
  2677   0008F2                     
  2678                           ;LcTLCD.c: 266:   (LATAbits.LATA4 = 0);
  2679   0008F2  9889               	bcf	137,4,c	;volatile
  2680   0008F4                     
  2681                           ;LcTLCD.c: 267:   if (TI_GetTics(Timer) >= 5) break;
  2682   0008F4  5052               	movf	_Timer^0,w,c
  2683   0008F6  ECEA  F004         	call	_TI_GetTics
  2684   0008FA  5059               	movf	(?_TI_GetTics+3)^0,w,c
  2685   0008FC  1058               	iorwf	(?_TI_GetTics+2)^0,w,c
  2686   0008FE  1057               	iorwf	(?_TI_GetTics+1)^0,w,c
  2687   000900  E109               	bnz	u1720
  2688   000902  0E05               	movlw	5
  2689   000904  5C56               	subwf	?_TI_GetTics^0,w,c
  2690   000906  A0D8               	btfss	status,0,c
  2691   000908  EF88  F004         	goto	u1721
  2692   00090C  EF8A  F004         	goto	u1720
  2693   000910                     u1721:
  2694   000910  EF8C  F004         	goto	l2779
  2695   000914                     u1720:
  2696   000914  EF94  F004         	goto	l379
  2697   000918                     l2779:
  2698                           
  2699                           ;LcTLCD.c: 268:  } while(Busy);
  2700   000918  5063               	movf	WaitForBusy@Busy^0,w,c
  2701   00091A  A4D8               	btfss	status,2,c
  2702   00091C  EF92  F004         	goto	u1731
  2703   000920  EF94  F004         	goto	u1730
  2704   000924                     u1731:
  2705   000924  EF6E  F004         	goto	l2757
  2706   000928                     u1730:
  2707   000928                     l379:
  2708   000928  0012               	return		;funcret
  2709   00092A                     __end_of_WaitForBusy:
  2710                           	callstack 0
  2711                           
  2712 ;; *************** function _Espera *****************
  2713 ;; Defined at:
  2714 ;;		line 198 in file "LcTLCD.c"
  2715 ;; Parameters:    Size  Location     Type
  2716 ;;  Timer           1    wreg     unsigned char 
  2717 ;;  ms              1   13[COMRAM] unsigned char 
  2718 ;; Auto vars:     Size  Location     Type
  2719 ;;  Timer           1   18[COMRAM] unsigned char 
  2720 ;; Return value:  Size  Location     Type
  2721 ;;                  1    wreg      void 
  2722 ;; Registers used:
  2723 ;;		wreg, fsr2l, fsr2h, status,2, status,0, prodl, prodh, cstack
  2724 ;; Tracked objects:
  2725 ;;		On entry : 0/0
  2726 ;;		On exit  : 0/0
  2727 ;;		Unchanged: 0/0
  2728 ;; Data sizes:     COMRAM   BANK0   BANK1
  2729 ;;      Params:         1       0       0
  2730 ;;      Locals:         1       0       0
  2731 ;;      Temps:          4       0       0
  2732 ;;      Totals:         6       0       0
  2733 ;;Total ram usage:        6 bytes
  2734 ;; Hardware stack levels used: 1
  2735 ;; Hardware stack levels required when called: 3
  2736 ;; This function calls:
  2737 ;;		_TI_GetTics
  2738 ;;		_TI_ResetTics
  2739 ;; This function is called by:
  2740 ;;		_LcClear
  2741 ;;		_LcInit
  2742 ;; This function uses a non-reentrant model
  2743 ;;
  2744                           
  2745                           	psect	text19
  2746   000A20                     __ptext19:
  2747                           	callstack 0
  2748   000A20                     _Espera:
  2749                           	callstack 26
  2750                           
  2751                           ;incstack = 0
  2752                           ;Espera@Timer stored from wreg
  2753   000A20  6E68               	movwf	Espera@Timer^0,c
  2754   000A22                     
  2755                           ;LcTLCD.c: 199:  TI_ResetTics(Timer);
  2756   000A22  5068               	movf	Espera@Timer^0,w,c
  2757   000A24  EC7E  F005         	call	_TI_ResetTics
  2758                           
  2759                           ;LcTLCD.c: 200:  while(TI_GetTics(Timer) < ms) {
  2760   000A28  EF17  F005         	goto	l2801
  2761   000A2C                     l359:
  2762                           
  2763                           ;LcTLCD.c: 201:         LATAbits.LATA3 = 1;
  2764   000A2C  8689               	bsf	137,3,c	;volatile
  2765   000A2E                     l2801:
  2766                           
  2767                           ;LcTLCD.c: 200:  while(TI_GetTics(Timer) < ms) {
  2768   000A2E  C063  F064         	movff	Espera@ms,??_Espera
  2769   000A32  6A65               	clrf	(??_Espera+1)^0,c
  2770   000A34  6A66               	clrf	(??_Espera+2)^0,c
  2771   000A36  6A67               	clrf	(??_Espera+3)^0,c
  2772   000A38  5068               	movf	Espera@Timer^0,w,c
  2773   000A3A  ECEA  F004         	call	_TI_GetTics
  2774   000A3E  5064               	movf	??_Espera^0,w,c
  2775   000A40  5C56               	subwf	?_TI_GetTics^0,w,c
  2776   000A42  5065               	movf	(??_Espera+1)^0,w,c
  2777   000A44  5857               	subwfb	(?_TI_GetTics+1)^0,w,c
  2778   000A46  5066               	movf	(??_Espera+2)^0,w,c
  2779   000A48  5858               	subwfb	(?_TI_GetTics+2)^0,w,c
  2780   000A4A  5067               	movf	(??_Espera+3)^0,w,c
  2781   000A4C  5859               	subwfb	(?_TI_GetTics+3)^0,w,c
  2782   000A4E  A0D8               	btfss	status,0,c
  2783   000A50  EF2C  F005         	goto	u1741
  2784   000A54  EF2E  F005         	goto	u1740
  2785   000A58                     u1741:
  2786   000A58  EF16  F005         	goto	l359
  2787   000A5C                     u1740:
  2788   000A5C                     
  2789                           ;LcTLCD.c: 203:     LATAbits.LATA3 = 0;
  2790   000A5C  9689               	bcf	137,3,c	;volatile
  2791   000A5E  0012               	return		;funcret
  2792   000A60                     __end_of_Espera:
  2793                           	callstack 0
  2794                           
  2795 ;; *************** function _TI_ResetTics *****************
  2796 ;; Defined at:
  2797 ;;		line 55 in file "TAD_TIMER.C"
  2798 ;; Parameters:    Size  Location     Type
  2799 ;;  TimerHandle     1    wreg     unsigned char 
  2800 ;; Auto vars:     Size  Location     Type
  2801 ;;  TimerHandle     1    0[COMRAM] unsigned char 
  2802 ;; Return value:  Size  Location     Type
  2803 ;;                  1    wreg      void 
  2804 ;; Registers used:
  2805 ;;		wreg, fsr2l, fsr2h, status,2, status,0, prodl, prodh
  2806 ;; Tracked objects:
  2807 ;;		On entry : 0/0
  2808 ;;		On exit  : 0/0
  2809 ;;		Unchanged: 0/0
  2810 ;; Data sizes:     COMRAM   BANK0   BANK1
  2811 ;;      Params:         0       0       0
  2812 ;;      Locals:         1       0       0
  2813 ;;      Temps:          0       0       0
  2814 ;;      Totals:         1       0       0
  2815 ;;Total ram usage:        1 bytes
  2816 ;; Hardware stack levels used: 1
  2817 ;; Hardware stack levels required when called: 2
  2818 ;; This function calls:
  2819 ;;		Nothing
  2820 ;; This function is called by:
  2821 ;;		_init_SPK
  2822 ;;		_Espera
  2823 ;;		_WaitForBusy
  2824 ;;		_LcInit
  2825 ;;		_TAD_UART
  2826 ;;		_TAD_Teclat
  2827 ;;		_TAD_Speaker
  2828 ;;		_TAD_LcD
  2829 ;;		_TAD_Menu
  2830 ;;		_TAD_WIFI
  2831 ;;		_sendString
  2832 ;; This function uses a non-reentrant model
  2833 ;;
  2834                           
  2835                           	psect	text20
  2836   000AFC                     __ptext20:
  2837                           	callstack 0
  2838   000AFC                     _TI_ResetTics:
  2839                           	callstack 27
  2840                           
  2841                           ;incstack = 0
  2842                           ;TI_ResetTics@TimerHandle stored from wreg
  2843   000AFC  6E56               	movwf	TI_ResetTics@TimerHandle^0,c
  2844   000AFE                     
  2845                           ;TAD_TIMER.C: 56:  (INTCONbits.GIE = 0); Timers[TimerHandle].TicsInicials=Tics; (INTCONb
      +                          its.GIE = 1);
  2846   000AFE  9EF2               	bcf	242,7,c	;volatile
  2847   000B00  5056               	movf	TI_ResetTics@TimerHandle^0,w,c
  2848   000B02  0D05               	mullw	5
  2849   000B04  50F3               	movf	243,w,c
  2850   000B06  0F80               	addlw	low _Timers
  2851   000B08  6ED9               	movwf	fsr2l,c
  2852   000B0A  6ADA               	clrf	fsr2h,c
  2853   000B0C  C001  FFDE         	movff	_Tics,postinc2	;volatile
  2854   000B10  C002  FFDE         	movff	_Tics+1,postinc2	;volatile
  2855   000B14  C003  FFDE         	movff	_Tics+2,postinc2	;volatile
  2856   000B18  C004  FFDE         	movff	_Tics+3,postinc2	;volatile
  2857   000B1C  8EF2               	bsf	242,7,c	;volatile
  2858   000B1E  0012               	return		;funcret
  2859   000B20                     __end_of_TI_ResetTics:
  2860                           	callstack 0
  2861                           
  2862 ;; *************** function _TI_GetTics *****************
  2863 ;; Defined at:
  2864 ;;		line 60 in file "TAD_TIMER.C"
  2865 ;; Parameters:    Size  Location     Type
  2866 ;;  TimerHandle     1    wreg     unsigned char 
  2867 ;; Auto vars:     Size  Location     Type
  2868 ;;  TimerHandle     1   12[COMRAM] unsigned char 
  2869 ;;  CopiaTicsAct    4    8[COMRAM] unsigned long 
  2870 ;; Return value:  Size  Location     Type
  2871 ;;                  4    0[COMRAM] unsigned long 
  2872 ;; Registers used:
  2873 ;;		wreg, fsr2l, fsr2h, status,2, status,0, prodl, prodh
  2874 ;; Tracked objects:
  2875 ;;		On entry : 0/0
  2876 ;;		On exit  : 0/0
  2877 ;;		Unchanged: 0/0
  2878 ;; Data sizes:     COMRAM   BANK0   BANK1
  2879 ;;      Params:         4       0       0
  2880 ;;      Locals:         5       0       0
  2881 ;;      Temps:          4       0       0
  2882 ;;      Totals:        13       0       0
  2883 ;;Total ram usage:       13 bytes
  2884 ;; Hardware stack levels used: 1
  2885 ;; Hardware stack levels required when called: 2
  2886 ;; This function calls:
  2887 ;;		Nothing
  2888 ;; This function is called by:
  2889 ;;		_Espera
  2890 ;;		_WaitForBusy
  2891 ;;		_TAD_UART
  2892 ;;		_TAD_Teclat
  2893 ;;		_TAD_Speaker
  2894 ;;		_TAD_LcD
  2895 ;;		_TAD_Menu
  2896 ;;		_TAD_WIFI
  2897 ;;		_sendString
  2898 ;; This function uses a non-reentrant model
  2899 ;;
  2900                           
  2901                           	psect	text21
  2902   0009D4                     __ptext21:
  2903                           	callstack 0
  2904   0009D4                     _TI_GetTics:
  2905                           	callstack 27
  2906                           
  2907                           ;incstack = 0
  2908                           ;TI_GetTics@TimerHandle stored from wreg
  2909   0009D4  6E62               	movwf	TI_GetTics@TimerHandle^0,c
  2910   0009D6                     
  2911                           ;TAD_TIMER.C: 61:     (INTCONbits.GIE = 0); unsigned long CopiaTicsActual=Tics; (INTCONb
      +                          its.GIE = 1);
  2912   0009D6  9EF2               	bcf	242,7,c	;volatile
  2913   0009D8  C001  F05E         	movff	_Tics,TI_GetTics@CopiaTicsActual	;volatile
  2914   0009DC  C002  F05F         	movff	_Tics+1,TI_GetTics@CopiaTicsActual+1	;volatile
  2915   0009E0  C003  F060         	movff	_Tics+2,TI_GetTics@CopiaTicsActual+2	;volatile
  2916   0009E4  C004  F061         	movff	_Tics+3,TI_GetTics@CopiaTicsActual+3	;volatile
  2917   0009E8  8EF2               	bsf	242,7,c	;volatile
  2918   0009EA                     
  2919                           ;TAD_TIMER.C: 62:  return (CopiaTicsActual-(Timers[TimerHandle].TicsInicials));
  2920   0009EA  5062               	movf	TI_GetTics@TimerHandle^0,w,c
  2921   0009EC  0D05               	mullw	5
  2922   0009EE  50F3               	movf	243,w,c
  2923   0009F0  0F80               	addlw	low _Timers
  2924   0009F2  6ED9               	movwf	fsr2l,c
  2925   0009F4  6ADA               	clrf	fsr2h,c
  2926   0009F6  CFDE F05A          	movff	postinc2,??_TI_GetTics
  2927   0009FA  CFDE F05B          	movff	postinc2,??_TI_GetTics+1
  2928   0009FE  CFDE F05C          	movff	postinc2,??_TI_GetTics+2
  2929   000A02  CFDE F05D          	movff	postinc2,??_TI_GetTics+3
  2930   000A06  505A               	movf	??_TI_GetTics^0,w,c
  2931   000A08  5C5E               	subwf	TI_GetTics@CopiaTicsActual^0,w,c
  2932   000A0A  6E56               	movwf	?_TI_GetTics^0,c
  2933   000A0C  505B               	movf	(??_TI_GetTics+1)^0,w,c
  2934   000A0E  585F               	subwfb	(TI_GetTics@CopiaTicsActual+1)^0,w,c
  2935   000A10  6E57               	movwf	(?_TI_GetTics+1)^0,c
  2936   000A12  505C               	movf	(??_TI_GetTics+2)^0,w,c
  2937   000A14  5860               	subwfb	(TI_GetTics@CopiaTicsActual+2)^0,w,c
  2938   000A16  6E58               	movwf	(?_TI_GetTics+2)^0,c
  2939   000A18  505D               	movf	(??_TI_GetTics+3)^0,w,c
  2940   000A1A  5861               	subwfb	(TI_GetTics@CopiaTicsActual+3)^0,w,c
  2941   000A1C  6E59               	movwf	(?_TI_GetTics+3)^0,c
  2942   000A1E  0012               	return		;funcret
  2943   000A20                     __end_of_TI_GetTics:
  2944                           	callstack 0
  2945                           
  2946 ;; *************** function _CantaIR *****************
  2947 ;; Defined at:
  2948 ;;		line 220 in file "LcTLCD.c"
  2949 ;; Parameters:    Size  Location     Type
  2950 ;;  IR              1    wreg     unsigned char 
  2951 ;; Auto vars:     Size  Location     Type
  2952 ;;  IR              1    2[COMRAM] unsigned char 
  2953 ;; Return value:  Size  Location     Type
  2954 ;;                  1    wreg      void 
  2955 ;; Registers used:
  2956 ;;		wreg, status,2, status,0, cstack
  2957 ;; Tracked objects:
  2958 ;;		On entry : 0/0
  2959 ;;		On exit  : 0/0
  2960 ;;		Unchanged: 0/0
  2961 ;; Data sizes:     COMRAM   BANK0   BANK1
  2962 ;;      Params:         0       0       0
  2963 ;;      Locals:         1       0       0
  2964 ;;      Temps:          0       0       0
  2965 ;;      Totals:         1       0       0
  2966 ;;Total ram usage:        1 bytes
  2967 ;; Hardware stack levels used: 1
  2968 ;; Hardware stack levels required when called: 3
  2969 ;; This function calls:
  2970 ;;		_CantaPartAlta
  2971 ;;		_CantaPartBaixa
  2972 ;; This function is called by:
  2973 ;;		_LcClear
  2974 ;;		_LcCursorOff
  2975 ;;		_LcGotoXY
  2976 ;;		_LcInit
  2977 ;; This function uses a non-reentrant model
  2978 ;;
  2979                           
  2980                           	psect	text22
  2981   000ACA                     __ptext22:
  2982                           	callstack 0
  2983   000ACA                     _CantaIR:
  2984                           	callstack 26
  2985                           
  2986                           ;incstack = 0
  2987                           ;CantaIR@IR stored from wreg
  2988   000ACA  6E58               	movwf	CantaIR@IR^0,c
  2989   000ACC                     
  2990                           ;LcTLCD.c: 221:  (TRISCbits.TRISC0 = TRISCbits.TRISC1 = TRISCbits.TRISC2 = TRISCbits.TRI
      +                          SC3 = 0);
  2991   000ACC  9694               	bcf	148,3,c	;volatile
  2992   000ACE  9494               	bcf	148,2,c	;volatile
  2993   000AD0  9294               	bcf	148,1,c	;volatile
  2994   000AD2  9094               	bcf	148,0,c	;volatile
  2995                           
  2996                           ;LcTLCD.c: 222:  (LATAbits.LATA2 = 0);
  2997   000AD4  9489               	bcf	137,2,c	;volatile
  2998                           
  2999                           ;LcTLCD.c: 223:  (LATAbits.LATA3 = 0);
  3000   000AD6  9689               	bcf	137,3,c	;volatile
  3001                           
  3002                           ;LcTLCD.c: 224:  (LATAbits.LATA4 = 1);
  3003   000AD8  8889               	bsf	137,4,c	;volatile
  3004   000ADA                     
  3005                           ;LcTLCD.c: 225:  CantaPartAlta(IR);
  3006   000ADA  5058               	movf	CantaIR@IR^0,w,c
  3007   000ADC  ECA8  F003         	call	_CantaPartAlta
  3008   000AE0                     
  3009                           ;LcTLCD.c: 226:  (LATAbits.LATA4 = 1);
  3010   000AE0  8889               	bsf	137,4,c	;volatile
  3011   000AE2                     
  3012                           ;LcTLCD.c: 227:  (LATAbits.LATA4 = 0);
  3013   000AE2  9889               	bcf	137,4,c	;volatile
  3014   000AE4                     
  3015                           ;LcTLCD.c: 228:  (LATAbits.LATA4 = 0);
  3016   000AE4  9889               	bcf	137,4,c	;volatile
  3017   000AE6                     
  3018                           ;LcTLCD.c: 229:  (LATAbits.LATA4 = 1);
  3019   000AE6  8889               	bsf	137,4,c	;volatile
  3020                           
  3021                           ;LcTLCD.c: 230:  CantaPartBaixa(IR);
  3022   000AE8  5058               	movf	CantaIR@IR^0,w,c
  3023   000AEA  EC64  F003         	call	_CantaPartBaixa
  3024   000AEE                     
  3025                           ;LcTLCD.c: 231:  (LATAbits.LATA4 = 1);
  3026   000AEE  8889               	bsf	137,4,c	;volatile
  3027   000AF0                     
  3028                           ;LcTLCD.c: 232:  (LATAbits.LATA4 = 0);
  3029   000AF0  9889               	bcf	137,4,c	;volatile
  3030   000AF2                     
  3031                           ;LcTLCD.c: 233:  (TRISCbits.TRISC0 = TRISCbits.TRISC1 = TRISCbits.TRISC2 = TRISCbits.TRI
      +                          SC3 = 1);
  3032   000AF2  8694               	bsf	148,3,c	;volatile
  3033   000AF4  8494               	bsf	148,2,c	;volatile
  3034   000AF6  8294               	bsf	148,1,c	;volatile
  3035   000AF8  8094               	bsf	148,0,c	;volatile
  3036   000AFA  0012               	return		;funcret
  3037   000AFC                     __end_of_CantaIR:
  3038                           	callstack 0
  3039                           
  3040 ;; *************** function _CantaPartBaixa *****************
  3041 ;; Defined at:
  3042 ;;		line 213 in file "LcTLCD.c"
  3043 ;; Parameters:    Size  Location     Type
  3044 ;;  c               1    wreg     unsigned char 
  3045 ;; Auto vars:     Size  Location     Type
  3046 ;;  c               1    1[COMRAM] unsigned char 
  3047 ;; Return value:  Size  Location     Type
  3048 ;;                  1    wreg      void 
  3049 ;; Registers used:
  3050 ;;		wreg, status,2, status,0
  3051 ;; Tracked objects:
  3052 ;;		On entry : 0/0
  3053 ;;		On exit  : 0/0
  3054 ;;		Unchanged: 0/0
  3055 ;; Data sizes:     COMRAM   BANK0   BANK1
  3056 ;;      Params:         0       0       0
  3057 ;;      Locals:         1       0       0
  3058 ;;      Temps:          1       0       0
  3059 ;;      Totals:         2       0       0
  3060 ;;Total ram usage:        2 bytes
  3061 ;; Hardware stack levels used: 1
  3062 ;; Hardware stack levels required when called: 2
  3063 ;; This function calls:
  3064 ;;		Nothing
  3065 ;; This function is called by:
  3066 ;;		_CantaIR
  3067 ;;		_CantaData
  3068 ;; This function uses a non-reentrant model
  3069 ;;
  3070                           
  3071                           	psect	text23
  3072   0006C8                     __ptext23:
  3073                           	callstack 0
  3074   0006C8                     _CantaPartBaixa:
  3075                           	callstack 26
  3076                           
  3077                           ;incstack = 0
  3078                           ;CantaPartBaixa@c stored from wreg
  3079   0006C8  6E57               	movwf	CantaPartBaixa@c^0,c
  3080   0006CA                     
  3081                           ;LcTLCD.c: 214:   (LATCbits.LATC3 = (c & 0x08 ? 1 : 0));
  3082   0006CA  B657               	btfsc	CantaPartBaixa@c^0,3,c
  3083   0006CC  EF6A  F003         	goto	u1561
  3084   0006D0  EF6E  F003         	goto	u1560
  3085   0006D4                     u1561:
  3086   0006D4  6A56               	clrf	??_CantaPartBaixa^0,c
  3087   0006D6  2A56               	incf	??_CantaPartBaixa^0,f,c
  3088   0006D8  EF6F  F003         	goto	u1578
  3089   0006DC                     u1560:
  3090   0006DC  6A56               	clrf	??_CantaPartBaixa^0,c
  3091   0006DE                     u1578:
  3092   0006DE  4656               	rlncf	??_CantaPartBaixa^0,f,c
  3093   0006E0  4656               	rlncf	??_CantaPartBaixa^0,f,c
  3094   0006E2  4656               	rlncf	??_CantaPartBaixa^0,f,c
  3095   0006E4  508B               	movf	139,w,c	;volatile
  3096   0006E6  1856               	xorwf	??_CantaPartBaixa^0,w,c
  3097   0006E8  0BF7               	andlw	-9
  3098   0006EA  1856               	xorwf	??_CantaPartBaixa^0,w,c
  3099   0006EC  6E8B               	movwf	139,c	;volatile
  3100                           
  3101                           ;LcTLCD.c: 215:   (LATCbits.LATC2 = (c & 0x04 ? 1 : 0));
  3102   0006EE  B457               	btfsc	CantaPartBaixa@c^0,2,c
  3103   0006F0  EF7C  F003         	goto	u1581
  3104   0006F4  EF80  F003         	goto	u1580
  3105   0006F8                     u1581:
  3106   0006F8  6A56               	clrf	??_CantaPartBaixa^0,c
  3107   0006FA  2A56               	incf	??_CantaPartBaixa^0,f,c
  3108   0006FC  EF81  F003         	goto	u1598
  3109   000700                     u1580:
  3110   000700  6A56               	clrf	??_CantaPartBaixa^0,c
  3111   000702                     u1598:
  3112   000702  4656               	rlncf	??_CantaPartBaixa^0,f,c
  3113   000704  4656               	rlncf	??_CantaPartBaixa^0,f,c
  3114   000706  508B               	movf	139,w,c	;volatile
  3115   000708  1856               	xorwf	??_CantaPartBaixa^0,w,c
  3116   00070A  0BFB               	andlw	-5
  3117   00070C  1856               	xorwf	??_CantaPartBaixa^0,w,c
  3118   00070E  6E8B               	movwf	139,c	;volatile
  3119                           
  3120                           ;LcTLCD.c: 216:   (LATCbits.LATC1 = (c & 0x02 ? 1 : 0));
  3121   000710  B257               	btfsc	CantaPartBaixa@c^0,1,c
  3122   000712  EF8D  F003         	goto	u1601
  3123   000716  EF91  F003         	goto	u1600
  3124   00071A                     u1601:
  3125   00071A  6A56               	clrf	??_CantaPartBaixa^0,c
  3126   00071C  2A56               	incf	??_CantaPartBaixa^0,f,c
  3127   00071E  EF92  F003         	goto	u1618
  3128   000722                     u1600:
  3129   000722  6A56               	clrf	??_CantaPartBaixa^0,c
  3130   000724                     u1618:
  3131   000724  4656               	rlncf	??_CantaPartBaixa^0,f,c
  3132   000726  508B               	movf	139,w,c	;volatile
  3133   000728  1856               	xorwf	??_CantaPartBaixa^0,w,c
  3134   00072A  0BFD               	andlw	-3
  3135   00072C  1856               	xorwf	??_CantaPartBaixa^0,w,c
  3136   00072E  6E8B               	movwf	139,c	;volatile
  3137                           
  3138                           ;LcTLCD.c: 217:   (LATCbits.LATC0 = (c & 0x01 ? 1 : 0));
  3139   000730  B057               	btfsc	CantaPartBaixa@c^0,0,c
  3140   000732  EF9D  F003         	goto	u1621
  3141   000736  EFA1  F003         	goto	u1620
  3142   00073A                     u1621:
  3143   00073A  6A56               	clrf	??_CantaPartBaixa^0,c
  3144   00073C  2A56               	incf	??_CantaPartBaixa^0,f,c
  3145   00073E  EFA2  F003         	goto	u1638
  3146   000742                     u1620:
  3147   000742  6A56               	clrf	??_CantaPartBaixa^0,c
  3148   000744                     u1638:
  3149   000744  508B               	movf	139,w,c	;volatile
  3150   000746  1856               	xorwf	??_CantaPartBaixa^0,w,c
  3151   000748  0BFE               	andlw	-2
  3152   00074A  1856               	xorwf	??_CantaPartBaixa^0,w,c
  3153   00074C  6E8B               	movwf	139,c	;volatile
  3154   00074E  0012               	return		;funcret
  3155   000750                     __end_of_CantaPartBaixa:
  3156                           	callstack 0
  3157                           
  3158 ;; *************** function _CantaPartAlta *****************
  3159 ;; Defined at:
  3160 ;;		line 206 in file "LcTLCD.c"
  3161 ;; Parameters:    Size  Location     Type
  3162 ;;  c               1    wreg     unsigned char 
  3163 ;; Auto vars:     Size  Location     Type
  3164 ;;  c               1    1[COMRAM] unsigned char 
  3165 ;; Return value:  Size  Location     Type
  3166 ;;                  1    wreg      void 
  3167 ;; Registers used:
  3168 ;;		wreg, status,2, status,0
  3169 ;; Tracked objects:
  3170 ;;		On entry : 0/0
  3171 ;;		On exit  : 0/0
  3172 ;;		Unchanged: 0/0
  3173 ;; Data sizes:     COMRAM   BANK0   BANK1
  3174 ;;      Params:         0       0       0
  3175 ;;      Locals:         1       0       0
  3176 ;;      Temps:          1       0       0
  3177 ;;      Totals:         2       0       0
  3178 ;;Total ram usage:        2 bytes
  3179 ;; Hardware stack levels used: 1
  3180 ;; Hardware stack levels required when called: 2
  3181 ;; This function calls:
  3182 ;;		Nothing
  3183 ;; This function is called by:
  3184 ;;		_CantaIR
  3185 ;;		_CantaData
  3186 ;; This function uses a non-reentrant model
  3187 ;;
  3188                           
  3189                           	psect	text24
  3190   000750                     __ptext24:
  3191                           	callstack 0
  3192   000750                     _CantaPartAlta:
  3193                           	callstack 26
  3194                           
  3195                           ;incstack = 0
  3196                           ;CantaPartAlta@c stored from wreg
  3197   000750  6E57               	movwf	CantaPartAlta@c^0,c
  3198   000752                     
  3199                           ;LcTLCD.c: 207:   (LATCbits.LATC3 = (c & 0x80 ? 1 : 0));
  3200   000752  BE57               	btfsc	CantaPartAlta@c^0,7,c
  3201   000754  EFAE  F003         	goto	u1481
  3202   000758  EFB2  F003         	goto	u1480
  3203   00075C                     u1481:
  3204   00075C  6A56               	clrf	??_CantaPartAlta^0,c
  3205   00075E  2A56               	incf	??_CantaPartAlta^0,f,c
  3206   000760  EFB3  F003         	goto	u1498
  3207   000764                     u1480:
  3208   000764  6A56               	clrf	??_CantaPartAlta^0,c
  3209   000766                     u1498:
  3210   000766  4656               	rlncf	??_CantaPartAlta^0,f,c
  3211   000768  4656               	rlncf	??_CantaPartAlta^0,f,c
  3212   00076A  4656               	rlncf	??_CantaPartAlta^0,f,c
  3213   00076C  508B               	movf	139,w,c	;volatile
  3214   00076E  1856               	xorwf	??_CantaPartAlta^0,w,c
  3215   000770  0BF7               	andlw	-9
  3216   000772  1856               	xorwf	??_CantaPartAlta^0,w,c
  3217   000774  6E8B               	movwf	139,c	;volatile
  3218                           
  3219                           ;LcTLCD.c: 208:   (LATCbits.LATC2 = (c & 0x40 ? 1 : 0));
  3220   000776  BC57               	btfsc	CantaPartAlta@c^0,6,c
  3221   000778  EFC0  F003         	goto	u1501
  3222   00077C  EFC4  F003         	goto	u1500
  3223   000780                     u1501:
  3224   000780  6A56               	clrf	??_CantaPartAlta^0,c
  3225   000782  2A56               	incf	??_CantaPartAlta^0,f,c
  3226   000784  EFC5  F003         	goto	u1518
  3227   000788                     u1500:
  3228   000788  6A56               	clrf	??_CantaPartAlta^0,c
  3229   00078A                     u1518:
  3230   00078A  4656               	rlncf	??_CantaPartAlta^0,f,c
  3231   00078C  4656               	rlncf	??_CantaPartAlta^0,f,c
  3232   00078E  508B               	movf	139,w,c	;volatile
  3233   000790  1856               	xorwf	??_CantaPartAlta^0,w,c
  3234   000792  0BFB               	andlw	-5
  3235   000794  1856               	xorwf	??_CantaPartAlta^0,w,c
  3236   000796  6E8B               	movwf	139,c	;volatile
  3237                           
  3238                           ;LcTLCD.c: 209:   (LATCbits.LATC1 = (c & 0x20 ? 1 : 0));
  3239   000798  BA57               	btfsc	CantaPartAlta@c^0,5,c
  3240   00079A  EFD1  F003         	goto	u1521
  3241   00079E  EFD5  F003         	goto	u1520
  3242   0007A2                     u1521:
  3243   0007A2  6A56               	clrf	??_CantaPartAlta^0,c
  3244   0007A4  2A56               	incf	??_CantaPartAlta^0,f,c
  3245   0007A6  EFD6  F003         	goto	u1538
  3246   0007AA                     u1520:
  3247   0007AA  6A56               	clrf	??_CantaPartAlta^0,c
  3248   0007AC                     u1538:
  3249   0007AC  4656               	rlncf	??_CantaPartAlta^0,f,c
  3250   0007AE  508B               	movf	139,w,c	;volatile
  3251   0007B0  1856               	xorwf	??_CantaPartAlta^0,w,c
  3252   0007B2  0BFD               	andlw	-3
  3253   0007B4  1856               	xorwf	??_CantaPartAlta^0,w,c
  3254   0007B6  6E8B               	movwf	139,c	;volatile
  3255                           
  3256                           ;LcTLCD.c: 210:   (LATCbits.LATC0 = (c & 0x10 ? 1 : 0));
  3257   0007B8  B857               	btfsc	CantaPartAlta@c^0,4,c
  3258   0007BA  EFE1  F003         	goto	u1541
  3259   0007BE  EFE5  F003         	goto	u1540
  3260   0007C2                     u1541:
  3261   0007C2  6A56               	clrf	??_CantaPartAlta^0,c
  3262   0007C4  2A56               	incf	??_CantaPartAlta^0,f,c
  3263   0007C6  EFE6  F003         	goto	u1558
  3264   0007CA                     u1540:
  3265   0007CA  6A56               	clrf	??_CantaPartAlta^0,c
  3266   0007CC                     u1558:
  3267   0007CC  508B               	movf	139,w,c	;volatile
  3268   0007CE  1856               	xorwf	??_CantaPartAlta^0,w,c
  3269   0007D0  0BFE               	andlw	-2
  3270   0007D2  1856               	xorwf	??_CantaPartAlta^0,w,c
  3271   0007D4  6E8B               	movwf	139,c	;volatile
  3272   0007D6  0012               	return		;funcret
  3273   0007D8                     __end_of_CantaPartAlta:
  3274                           	callstack 0
  3275                           
  3276 ;; *************** function _RSI *****************
  3277 ;; Defined at:
  3278 ;;		line 41 in file "main.c"
  3279 ;; Parameters:    Size  Location     Type
  3280 ;;		None
  3281 ;; Auto vars:     Size  Location     Type
  3282 ;;		None
  3283 ;; Return value:  Size  Location     Type
  3284 ;;                  1    wreg      void 
  3285 ;; Registers used:
  3286 ;;		wreg, status,2, status,0, cstack
  3287 ;; Tracked objects:
  3288 ;;		On entry : 0/0
  3289 ;;		On exit  : 0/0
  3290 ;;		Unchanged: 0/0
  3291 ;; Data sizes:     COMRAM   BANK0   BANK1
  3292 ;;      Params:         0       0       0
  3293 ;;      Locals:         0       0       0
  3294 ;;      Temps:          0       0       0
  3295 ;;      Totals:         0       0       0
  3296 ;;Total ram usage:        0 bytes
  3297 ;; Hardware stack levels used: 1
  3298 ;; Hardware stack levels required when called: 1
  3299 ;; This function calls:
  3300 ;;		_RSI_Timer0
  3301 ;; This function is called by:
  3302 ;;		Interrupt level 2
  3303 ;; This function uses a non-reentrant model
  3304 ;;
  3305                           
  3306                           	psect	intcode
  3307   000008                     __pintcode:
  3308                           	callstack 0
  3309   000008                     _RSI:
  3310                           	callstack 26
  3311                           
  3312                           ;incstack = 0
  3313   000008  827D               	bsf	int$flags,1,c	;set compiler interrupt flag (level 2)
  3314   00000A                     
  3315                           ;main.c: 42:     INTCONbits.GIE = 1;
  3316   00000A  A4F2               	btfss	242,2,c	;volatile
  3317   00000C  EF0A  F000         	goto	i2u71_41
  3318   000010  EF0C  F000         	goto	i2u71_40
  3319   000014                     i2u71_41:
  3320   000014  EF0E  F000         	goto	i2l69
  3321   000018                     i2u71_40:
  3322   000018                     
  3323                           ;main.c: 43: 
  3324   000018  ECA1  F005         	call	_RSI_Timer0	;wreg free
  3325   00001C                     i2l69:
  3326   00001C  927D               	bcf	int$flags,1,c	;clear compiler interrupt flag (level 2)
  3327   00001E  0011               	retfie		f
  3328   000020                     __end_of_RSI:
  3329                           	callstack 0
  3330                           
  3331 ;; *************** function _RSI_Timer0 *****************
  3332 ;; Defined at:
  3333 ;;		line 26 in file "TAD_TIMER.C"
  3334 ;; Parameters:    Size  Location     Type
  3335 ;;		None
  3336 ;; Auto vars:     Size  Location     Type
  3337 ;;		None
  3338 ;; Return value:  Size  Location     Type
  3339 ;;                  1    wreg      void 
  3340 ;; Registers used:
  3341 ;;		wreg, status,2, status,0
  3342 ;; Tracked objects:
  3343 ;;		On entry : 0/0
  3344 ;;		On exit  : 0/0
  3345 ;;		Unchanged: 0/0
  3346 ;; Data sizes:     COMRAM   BANK0   BANK1
  3347 ;;      Params:         0       0       0
  3348 ;;      Locals:         0       0       0
  3349 ;;      Temps:          0       0       0
  3350 ;;      Totals:         0       0       0
  3351 ;;Total ram usage:        0 bytes
  3352 ;; Hardware stack levels used: 1
  3353 ;; This function calls:
  3354 ;;		Nothing
  3355 ;; This function is called by:
  3356 ;;		_RSI
  3357 ;; This function uses a non-reentrant model
  3358 ;;
  3359                           
  3360                           	psect	text26
  3361   000B42                     __ptext26:
  3362                           	callstack 0
  3363   000B42                     _RSI_Timer0:
  3364                           	callstack 26
  3365   000B42                     
  3366                           ;TAD_TIMER.C: 28:     LATD ^= 0b00000001;
  3367   000B42  0E01               	movlw	1
  3368   000B44  1A8C               	xorwf	140,f,c	;volatile
  3369   000B46                     
  3370                           ;TAD_TIMER.C: 29:     TMR0=65280;
  3371   000B46  0EFF               	movlw	255
  3372   000B48  6ED7               	movwf	215,c	;volatile
  3373   000B4A  0E00               	movlw	0
  3374   000B4C  6ED6               	movwf	214,c	;volatile
  3375   000B4E                     
  3376                           ;TAD_TIMER.C: 30:     TMR0IF=0;
  3377   000B4E  94F2               	bcf	4082,2,c	;volatile
  3378   000B50                     
  3379                           ;TAD_TIMER.C: 31:     Tics++;
  3380   000B50  0E01               	movlw	1
  3381   000B52  2601               	addwf	_Tics^0,f,c	;volatile
  3382   000B54  0E00               	movlw	0
  3383   000B56  2202               	addwfc	(_Tics+1)^0,f,c	;volatile
  3384   000B58  2203               	addwfc	(_Tics+2)^0,f,c	;volatile
  3385   000B5A  2204               	addwfc	(_Tics+3)^0,f,c	;volatile
  3386   000B5C  0012               	return		;funcret
  3387   000B5E                     __end_of_RSI_Timer0:
  3388                           	callstack 0
  3389                           
  3390                           	psect	rparam
  3391   000000                     
  3392                           	psect	temp
  3393   00007D                     btemp:
  3394                           	callstack 0
  3395   00007D                     	ds	1
  3396   000000                     int$flags	set	btemp
  3397   000000                     wtemp8	set	btemp+1
  3398   000000                     ttemp5	set	btemp+1
  3399   000000                     ttemp6	set	btemp+4
  3400   000000                     ttemp7	set	btemp+8
  3401                           
  3402                           	psect	idloc
  3403                           
  3404                           ;Config register IDLOC0 @ 0x200000
  3405                           ;	unspecified, using default values
  3406   200000                     	org	2097152
  3407   200000  FF                 	db	255
  3408                           
  3409                           ;Config register IDLOC1 @ 0x200001
  3410                           ;	unspecified, using default values
  3411   200001                     	org	2097153
  3412   200001  FF                 	db	255
  3413                           
  3414                           ;Config register IDLOC2 @ 0x200002
  3415                           ;	unspecified, using default values
  3416   200002                     	org	2097154
  3417   200002  FF                 	db	255
  3418                           
  3419                           ;Config register IDLOC3 @ 0x200003
  3420                           ;	unspecified, using default values
  3421   200003                     	org	2097155
  3422   200003  FF                 	db	255
  3423                           
  3424                           ;Config register IDLOC4 @ 0x200004
  3425                           ;	unspecified, using default values
  3426   200004                     	org	2097156
  3427   200004  FF                 	db	255
  3428                           
  3429                           ;Config register IDLOC5 @ 0x200005
  3430                           ;	unspecified, using default values
  3431   200005                     	org	2097157
  3432   200005  FF                 	db	255
  3433                           
  3434                           ;Config register IDLOC6 @ 0x200006
  3435                           ;	unspecified, using default values
  3436   200006                     	org	2097158
  3437   200006  FF                 	db	255
  3438                           
  3439                           ;Config register IDLOC7 @ 0x200007
  3440                           ;	unspecified, using default values
  3441   200007                     	org	2097159
  3442   200007  FF                 	db	255
  3443                           
  3444                           	psect	config
  3445                           
  3446                           ; Padding undefined space
  3447   300000                     	org	3145728
  3448   300000  FF                 	db	255
  3449                           
  3450                           ;Config register CONFIG1H @ 0x300001
  3451                           ;	Oscillator
  3452                           ;	OSC = HSPLL, HS oscillator, PLL enabled (Clock Frequency = 4 x FOSC1)
  3453                           ;	Fail-Safe Clock Monitor Enable bit
  3454                           ;	FCMEN = 0x0, unprogrammed default
  3455                           ;	Internal/External Oscillator Switchover bit
  3456                           ;	IESO = 0x0, unprogrammed default
  3457   300001                     	org	3145729
  3458   300001  06                 	db	6
  3459                           
  3460                           ;Config register CONFIG2L @ 0x300002
  3461                           ;	Power-up Timer Enable bit
  3462                           ;	PWRT = OFF, PWRT disabled
  3463                           ;	Brown-out Reset Enable bits
  3464                           ;	BOR = OFF, Brown-out Reset disabled in hardware and software
  3465                           ;	Brown-out Reset Voltage bits
  3466                           ;	BORV = 0x3, unprogrammed default
  3467   300002                     	org	3145730
  3468   300002  19                 	db	25
  3469                           
  3470                           ;Config register CONFIG2H @ 0x300003
  3471                           ;	Watchdog Timer Enable bit
  3472                           ;	WDT = OFF, WDT disabled (control is placed on the SWDTEN bit)
  3473                           ;	Watchdog Timer Postscale Select bits
  3474                           ;	WDTPS = 0xF, unprogrammed default
  3475   300003                     	org	3145731
  3476   300003  1E                 	db	30
  3477                           
  3478                           ; Padding undefined space
  3479   300004                     	org	3145732
  3480   300004  FF                 	db	255
  3481                           
  3482                           ;Config register CONFIG3H @ 0x300005
  3483                           ;	CCP2 MUX bit
  3484                           ;	CCP2MX = 0x1, unprogrammed default
  3485                           ;	PORTB A/D Enable bit
  3486                           ;	PBADEN = DIG, PORTB<4:0> pins are configured as digital I/O on Reset
  3487                           ;	Low-Power Timer1 Oscillator Enable bit
  3488                           ;	LPT1OSC = 0x0, unprogrammed default
  3489                           ;	MCLR Pin Enable bit
  3490                           ;	MCLRE = OFF, RE3 input pin enabled; MCLR disabled
  3491   300005                     	org	3145733
  3492   300005  01                 	db	1
  3493                           
  3494                           ;Config register CONFIG4L @ 0x300006
  3495                           ;	Stack Full/Underflow Reset Enable bit
  3496                           ;	STVREN = 0x1, unprogrammed default
  3497                           ;	Single-Supply ICSP Enable bit
  3498                           ;	LVP = OFF, Single-Supply ICSP disabled
  3499                           ;	Boot Block Size Select bits
  3500                           ;	BBSIZ = 0x0, unprogrammed default
  3501                           ;	Extended Instruction Set Enable bit
  3502                           ;	XINST = 0x0, unprogrammed default
  3503                           ;	Background Debugger Enable bit
  3504                           ;	DEBUG = OFF, Background debugger disabled, RB6 and RB7 configured as general purpose I
      +                          /O pins
  3505   300006                     	org	3145734
  3506   300006  81                 	db	129
  3507                           
  3508                           ; Padding undefined space
  3509   300007                     	org	3145735
  3510   300007  FF                 	db	255
  3511                           
  3512                           ;Config register CONFIG5L @ 0x300008
  3513                           ;	unspecified, using default values
  3514                           ;	Code Protection bit
  3515                           ;	CP0 = 0x1, unprogrammed default
  3516                           ;	Code Protection bit
  3517                           ;	CP1 = 0x1, unprogrammed default
  3518   300008                     	org	3145736
  3519   300008  03                 	db	3
  3520                           
  3521                           ;Config register CONFIG5H @ 0x300009
  3522                           ;	unspecified, using default values
  3523                           ;	Boot Block Code Protection bitProtect Boot
  3524                           ;	CPB = 0x1, unprogrammed default
  3525                           ;	Data EEPROM Code Protection bit
  3526                           ;	CPD = 0x1, unprogrammed default
  3527   300009                     	org	3145737
  3528   300009  C0                 	db	192
  3529                           
  3530                           ;Config register CONFIG6L @ 0x30000A
  3531                           ;	unspecified, using default values
  3532                           ;	Write Protection bit
  3533                           ;	WRT0 = 0x1, unprogrammed default
  3534                           ;	Write Protection bit
  3535                           ;	WRT1 = 0x1, unprogrammed default
  3536   30000A                     	org	3145738
  3537   30000A  03                 	db	3
  3538                           
  3539                           ;Config register CONFIG6H @ 0x30000B
  3540                           ;	unspecified, using default values
  3541                           ;	Configuration Register Write Protection bit
  3542                           ;	WRTC = 0x1, unprogrammed default
  3543                           ;	Boot Block Write Protection bit
  3544                           ;	WRTB = 0x1, unprogrammed default
  3545                           ;	Data EEPROM Write Protection bit
  3546                           ;	WRTD = 0x1, unprogrammed default
  3547   30000B                     	org	3145739
  3548   30000B  E0                 	db	224
  3549                           
  3550                           ;Config register CONFIG7L @ 0x30000C
  3551                           ;	unspecified, using default values
  3552                           ;	Table Read Protection bit
  3553                           ;	EBTR0 = 0x1, unprogrammed default
  3554                           ;	Table Read Protection bit
  3555                           ;	EBTR1 = 0x1, unprogrammed default
  3556   30000C                     	org	3145740
  3557   30000C  03                 	db	3
  3558                           
  3559                           ;Config register CONFIG7H @ 0x30000D
  3560                           ;	unspecified, using default values
  3561                           ;	Boot Block Table Read Protection bit
  3562                           ;	EBTRB = 0x1, unprogrammed default
  3563   30000D                     	org	3145741
  3564   30000D  40                 	db	64
  3565                           tosu	equ	0xFFF
  3566                           tosh	equ	0xFFE
  3567                           tosl	equ	0xFFD
  3568                           stkptr	equ	0xFFC
  3569                           pclatu	equ	0xFFB
  3570                           pclath	equ	0xFFA
  3571                           pcl	equ	0xFF9
  3572                           tblptru	equ	0xFF8
  3573                           tblptrh	equ	0xFF7
  3574                           tblptrl	equ	0xFF6
  3575                           tablat	equ	0xFF5
  3576                           prodh	equ	0xFF4
  3577                           prodl	equ	0xFF3
  3578                           indf0	equ	0xFEF
  3579                           postinc0	equ	0xFEE
  3580                           postdec0	equ	0xFED
  3581                           preinc0	equ	0xFEC
  3582                           plusw0	equ	0xFEB
  3583                           fsr0h	equ	0xFEA
  3584                           fsr0l	equ	0xFE9
  3585                           wreg	equ	0xFE8
  3586                           indf1	equ	0xFE7
  3587                           postinc1	equ	0xFE6
  3588                           postdec1	equ	0xFE5
  3589                           preinc1	equ	0xFE4
  3590                           plusw1	equ	0xFE3
  3591                           fsr1h	equ	0xFE2
  3592                           fsr1l	equ	0xFE1
  3593                           bsr	equ	0xFE0
  3594                           indf2	equ	0xFDF
  3595                           postinc2	equ	0xFDE
  3596                           postdec2	equ	0xFDD
  3597                           preinc2	equ	0xFDC
  3598                           plusw2	equ	0xFDB
  3599                           fsr2h	equ	0xFDA
  3600                           fsr2l	equ	0xFD9
  3601                           status	equ	0xFD8

Data Sizes:
    Strings     125
    Constant    0
    Data        241
    BSS         160
    Persistent  0
    Stack       0

Auto Spaces:
    Space          Size  Autos    Used
    COMRAM          126     22     124
    BANK0           128      0      91
    BANK1           256      0     208

Pointer List with Targets:

    localPort@TAD_WORK$F1400	PTR unsigned char  size(2) Largest target is 0
		 -> NULL(NULL[0]), 

    print	PTR unsigned char  size(1) Largest target is 17
		 -> STR_1(CODE[17]), STR_2(CODE[17]), STR_3(CODE[17]), STR_4(CODE[12]), 
		 -> STR_5(CODE[12]), STR_6(CODE[6]), NULL(NULL[0]), 

    remotePort@TAD_WORK$F1401	PTR unsigned char  size(2) Largest target is 0
		 -> NULL(NULL[0]), 

    TI_NewTimer@TimerHandle	PTR unsigned char  size(1) Largest target is 1
		 -> rc(COMRAM[1]), t(COMRAM[1]), t1(COMRAM[1]), t@TAD_MENU$F958(COMRAM[1]), 
		 -> t@TAD_SPEAKER$F528(COMRAM[1]), t@TAD_WIFI$F1219(COMRAM[1]), Timer(COMRAM[1]), tx(COMRAM[1]), 


Critical Paths under _main in COMRAM

    _main->_LcInit
    _init_WIFI->_TI_NewTimer
    _init_UART->_TI_NewTimer
    _init_SPK->_TI_NewTimer
    _init_Menu->_TI_NewTimer
    _init_KEYB->_TI_NewTimer
    _TAD_UART->_TI_GetTics
    _LcInit->_Espera
    _LcGotoXY->_WaitForBusy
    _LcCursorOff->_WaitForBusy
    _LcClear->_Espera
    _WaitForBusy->_TI_GetTics
    _Espera->_TI_GetTics
    _CantaIR->_CantaPartAlta
    _CantaIR->_CantaPartBaixa

Critical Paths under _RSI in COMRAM

    None.

Critical Paths under _main in BANK0

    None.

Critical Paths under _RSI in BANK0

    None.

Critical Paths under _main in BANK1

    None.

Critical Paths under _RSI in BANK1

    None.

Call Graph Tables:

 ---------------------------------------------------------------------------------
 (Depth) Function   	        Calls       Base Space   Used Autos Params    Refs
 ---------------------------------------------------------------------------------
 (0) _main                                                 0     0      0    8162
                            _LcClear
                        _LcCursorOff
                           _LcGotoXY
                             _LcInit
                           _TAD_UART
                            _TI_Init
                            _getData
                          _initPorts
                           _init_ADC
                          _init_KEYB
                          _init_Menu
                           _init_SPK
                          _init_UART
                          _init_WIFI
                           _sendByte
 ---------------------------------------------------------------------------------
 (1) _sendByte                                             2     2      0      15
                                              0 COMRAM     2     2      0
 ---------------------------------------------------------------------------------
 (1) _init_WIFI                                            0     0      0     719
                        _TI_NewTimer
 ---------------------------------------------------------------------------------
 (1) _init_UART                                            0     0      0     719
                        _TI_NewTimer
 ---------------------------------------------------------------------------------
 (1) _init_SPK                                             0     0      0     741
                        _TI_NewTimer
                       _TI_ResetTics
 ---------------------------------------------------------------------------------
 (1) _init_Menu                                            0     0      0     719
                        _TI_NewTimer
 ---------------------------------------------------------------------------------
 (1) _init_KEYB                                            0     0      0     719
                        _TI_NewTimer
 ---------------------------------------------------------------------------------
 (1) _init_ADC                                             0     0      0       0
 ---------------------------------------------------------------------------------
 (1) _initPorts                                            0     0      0       0
 ---------------------------------------------------------------------------------
 (1) _getData                                              0     0      0       0
 ---------------------------------------------------------------------------------
 (1) _TI_Init                                              1     1      0      68
                                              0 COMRAM     1     1      0
 ---------------------------------------------------------------------------------
 (1) _TAD_UART                                             2     2      0      67
                                             13 COMRAM     2     2      0
                         _TI_GetTics
                       _TI_ResetTics
 ---------------------------------------------------------------------------------
 (1) _LcInit                                               3     2      1    1942
                                             19 COMRAM     3     2      1
                            _CantaIR
                 _EscriuPrimeraOrdre
                             _Espera
                        _TI_NewTimer
                       _TI_ResetTics
                        _WaitForBusy
 ---------------------------------------------------------------------------------
 (2) _TI_NewTimer                                          3     2      1     719
                                              0 COMRAM     3     2      1
 ---------------------------------------------------------------------------------
 (2) _EscriuPrimeraOrdre                                   2     2      0      60
                                              0 COMRAM     2     2      0
 ---------------------------------------------------------------------------------
 (1) _LcGotoXY                                             7     6      1    1168
                                             14 COMRAM     7     6      1
                            _CantaIR
                        _WaitForBusy
 ---------------------------------------------------------------------------------
 (1) _LcCursorOff                                          0     0      0     310
                            _CantaIR
                        _WaitForBusy
 ---------------------------------------------------------------------------------
 (1) _LcClear                                              0     0      0     975
                            _CantaIR
                             _Espera
                        _WaitForBusy
 ---------------------------------------------------------------------------------
 (2) _WaitForBusy                                          1     1      0      90
                                             13 COMRAM     1     1      0
                         _TI_GetTics
                       _TI_ResetTics
 ---------------------------------------------------------------------------------
 (2) _Espera                                               6     5      1     665
                                             13 COMRAM     6     5      1
                         _TI_GetTics
                       _TI_ResetTics
 ---------------------------------------------------------------------------------
 (2) _TI_ResetTics                                         1     1      0      22
                                              0 COMRAM     1     1      0
 ---------------------------------------------------------------------------------
 (2) _TI_GetTics                                          13     9      4      45
                                              0 COMRAM    13     9      4
 ---------------------------------------------------------------------------------
 (2) _CantaIR                                              1     1      0     220
                                              2 COMRAM     1     1      0
                      _CantaPartAlta
                     _CantaPartBaixa
 ---------------------------------------------------------------------------------
 (3) _CantaPartBaixa                                       2     2      0      88
                                              0 COMRAM     2     2      0
 ---------------------------------------------------------------------------------
 (3) _CantaPartAlta                                        2     2      0      88
                                              0 COMRAM     2     2      0
 ---------------------------------------------------------------------------------
 Estimated maximum stack depth 3
 ---------------------------------------------------------------------------------
 (Depth) Function   	        Calls       Base Space   Used Autos Params    Refs
 ---------------------------------------------------------------------------------
 (4) _RSI                                                  0     0      0       0
                         _RSI_Timer0
 ---------------------------------------------------------------------------------
 (5) _RSI_Timer0                                           0     0      0       0
 ---------------------------------------------------------------------------------
 Estimated maximum stack depth 5
 ---------------------------------------------------------------------------------

 Call Graph Graphs:

 _main (ROOT)
   _LcClear
     _CantaIR
       _CantaPartAlta
       _CantaPartBaixa
     _Espera
       _TI_GetTics
       _TI_ResetTics
     _WaitForBusy
       _TI_GetTics
       _TI_ResetTics
   _LcCursorOff
     _CantaIR
     _WaitForBusy
   _LcGotoXY
     _CantaIR
     _WaitForBusy
   _LcInit
     _CantaIR
     _EscriuPrimeraOrdre
     _Espera
     _TI_NewTimer
     _TI_ResetTics
     _WaitForBusy
   _TAD_UART
     _TI_GetTics
     _TI_ResetTics
   _TI_Init
   _getData
   _initPorts
   _init_ADC
   _init_KEYB
     _TI_NewTimer
   _init_Menu
     _TI_NewTimer
   _init_SPK
     _TI_NewTimer
     _TI_ResetTics
   _init_UART
     _TI_NewTimer
   _init_WIFI
     _TI_NewTimer
   _sendByte

 _RSI (ROOT)
   _RSI_Timer0

 Address spaces:
Name               Size   Autos  Total    Cost      Usage
BIGRAM             1FF      0       0      21        0.0%
EEDATA             100      0       0       0        0.0%
BITBANK1           100      0       0       6        0.0%
BANK1              100      0      D0       7       81.2%
BITBANK0            80      0       0       4        0.0%
BANK0               80      0      5B       5       71.1%
BITCOMRAM           7E      0       0       0        0.0%
COMRAM              7E     16      7C       1       98.4%
BITBIGSFRhlh        1A      0       0       9        0.0%
BITBIGSFRhllhh      10      0       0      10        0.0%
BITBIGSFRhh          D      0       0       8        0.0%
BITBIGSFRhllllh      C      0       0      14        0.0%
BITBIGSFRhlllhl      7      0       0      13        0.0%
BITBIGSFRhlllhh      7      0       0      12        0.0%
BITBIGSFRhlllll      7      0       0      15        0.0%
BITBIGSFRlllhh       4      0       0      17        0.0%
BITBIGSFRlh          4      0       0      16        0.0%
BITBIGSFRhllhl       1      0       0      11        0.0%
BITBIGSFRlllhl       1      0       0      18        0.0%
BITBIGSFRllll        1      0       0      19        0.0%
BIGSFR               0      0       0     200        0.0%
BITSFR               0      0       0     200        0.0%
SFR                  0      0       0     200        0.0%
STACK                0      0       0       2        0.0%
NULL                 0      0       0       0        0.0%
ABS                  0      0     1A7      20        0.0%
DATA                 0      0     1A7       3        0.0%
CODE                 0      0       0       0        0.0%


Microchip Technology PIC18 Macro Assembler V2.45 build 20230818022343 
Symbol Table                                                                                   Wed Apr 24 11:44:04 2024

                         _a 001F                           _i 0034                           _t 0055  
                _RSI_Timer0 0B42                          l63 0AC8                          l74 09C0  
                        l99 0A94                          _t1 0054                  _TI_GetTics 09D4  
                        _rc 004E                          _tx 004F             TAD_Teclat@estat 0030  
           _t@TAD_MENU$F958 0051                         l112 0A1E                         l105 0980  
                       l109 0B1E                         l310 0BE2                         l320 03F8  
                       l322 044A                         l307 0B72                         l156 0B96  
                       l327 044E                         l255 0BC8                         l360 0A5C  
                       l328 049C                         l361 0A5E                         l370 0AFA  
                       l611 0B40                         l364 07D6                         l382 06C6  
                       l470 0BEC                         l367 074E                         l359 0A2C  
                       l712 0B84                         l379 0928                         l387 062C  
                       l707 0372                         l709 03C2                         l575 0BD6  
                       l681 0BF0                         l668 08C8                         l695 0284  
                       u300 0676                         u301 066E                         u320 0698  
                       u321 0690                         u340 06B8                         u500 087E  
                       u341 06B0                         u501 087A                         u318 0678  
                       u510 089C                         u511 0898                         u280 0652  
                       u281 064A                         u338 069A                         u358 06BA  
                       u298 0654                         u490 086E                         u491 086A  
                       _RSI 0008                         _bye 006C            ??_CantaPartBaixa 0056  
                       wreg 0FE8             _i@TAD_MENU$F966 0021               TAD_UART@state 000E  
                      ?_RSI 0056                        l1611 0AB4                        l1603 0A96  
                      l3131 0986                        l1621 0AC6                        l1613 0AB6  
                      l1605 0AAA                        l3141 09C4                        l3133 098A  
                      l1615 0AC0                        l1607 0AB0                        l3135 098E  
                      l1617 0AC2                        l1609 0AB2                        l3137 0992  
                      l3129 0982                        l1619 0AC4                        l3139 09BE  
                      l1639 0BCA                        l1831 0860                        l2801 0A2E  
                      l1833 086E                        l2651 0B1C                        l1595 0630  
                      l1827 0BEE                        l2811 0BE4                        l1851 08A6  
                      l1835 087E                        l2653 09D6                        l1597 0640  
                      l2901 061C                        l2805 0BBA                        l2813 0B74  
                      l2821 0B2C                        l1837 0884                        l1845 088C  
                      l2655 09EA                        l2647 0AFE                        l2903 0B5E  
                      l2911 0BDC                        l1599 06C4                        l2831 0B3A  
                      l2823 0B2E                        l2815 0B20                        l1847 089C  
                      l1839 0886                        l2681 0752                        l2649 0B00  
                      l2761 08E0                        l2753 08CA                        l2905 0B62  
                      l2921 03EE                        l2913 03C6                        l2809 0B86  
                      l2833 0B3C                        l2825 0B30                        l2817 0B28  
                      l1849 089E                        l1857 08AC                 _TI_NewTimer 092A  
                      l2683 06CA                        l2771 08F0                        l2763 08E8  
                      l2755 08D6                        l2907 0B68                        l2931 042E  
                      l2923 03FC                        l2915 03CA                        l2691 094A  
                      l2851 0A90                        l2843 0A64                        l2835 0B3E  
                      l2827 0B32                        l2819 0B2A                        l1859 08C4  
                      l2781 0ACC                        l2773 08F2                        l2765 08EA  
                      l2757 08DC                        l2909 0BD8                        l2941 048C  
                      l2933 0440                        l2925 040C                        l2917 03DA  
                      l2693 0966                        l2685 092A                        l2861 0586  
                      l2853 0A92                        l2845 0A72                        l2837 0A60  
                      l2829 0B36                        l2791 0AE6                        l2783 0ADA  
                      l2775 08F4                        l2767 08EC                        l2759 08DE  
                      l2943 0494                        l2927 0414                        l2919 03E6  
                      l2695 0976                        l2687 0932                        l2871 0598  
                      l2863 058E                        l2855 0570                        l2951 0280  
                      l2847 0A74                        l2793 0AEE                        l2785 0AE0  
                      l2769 08EE                        l2945 0498                        l2929 0426  
                      l2937 0456                        l2881 05D2                        l2873 05A2  
                      l2865 0594                        l2857 057E                        l2961 02BE  
                      l2953 0292                        l2849 0A84                        l2795 0AF0  
                      l2787 0AE2                        l2779 0918                        l2939 0488  
                      l2891 05FC                        l2883 05D8                        l2875 05A8  
                      l2859 0582                        l2971 0304                        l2955 0298  
                      l2797 0AF2                        l2789 0AE4                        l2893 0606  
                      l2885 05E8                        l2877 05B8                        l3757 0394  
                      l2981 0342                        l2965 02C6                        l2957 029C  
                      l2799 0A22                        l3759 046A                        l2895 060A  
                      l2887 05EC                        l2879 05C2                        l2983 0354  
                      l2967 02D6                        l2975 030E                        l2959 02A2  
                      l2897 0614                        l2889 05F6                        l2985 035C  
                      l2977 031E                        l2969 0300                        l2993 0380  
                      l2899 061A                        l2987 036E                        l2979 033A  
                      l2989 0376                        STR_1 0223                        STR_2 0201  
                      STR_3 0212                        STR_4 0261                        STR_6 0278  
                      STR_7 026D                        STR_9 0244                        u1500 0788  
                      u1501 0780                        _LATA 0F89                        _LATB 0F8A  
                      u1520 07AA                        u1600 0722                        _LATD 0F8C  
                      u1521 07A2                        u1601 071A                        u1540 07CA  
                      u1620 0742                        u1541 07C2                        u1621 073A  
                      u1518 078A                        u1480 0764                        u1560 06DC  
                      u1720 0914                        u1800 0440                        u1640 0946  
                      u1481 075C                        u1561 06D4                        u1721 0910  
                      u1801 043C                        u1641 0942                        u1538 07AC  
                      u1618 0724                        u1730 0928                        u1650 0966  
                      u1810 0292                        u1731 0924                        u1651 0962  
                      u1811 028E                        u1580 0700                        u1740 0A5C  
                      u1820 02BE                        u1581 06F8                        u1741 0A58  
                      u1821 02BA                        u1558 07CC                        u1638 0744  
                      u1830 02D6                        u1750 0A84                        u1831 02D2  
                      u1751 0A80                        u1760 062C                        u1840 02E6  
                      u1761 0628                        u1841 02E0                        u1498 0766  
                      u1578 06DE                        u1770 03DA                        u1850 033A  
                      u1771 03D6                        u1851 0336                        u1780 040C  
                      u1860 0354                        u1781 0408                        u1861 0350  
                      u1598 0702                        u1790 0426                        u1870 036E  
                      u1846 02E8                        u1791 0422                        u1871 036A  
                      i2l69 001C                        i2l94 0B5C                        _TMR0 0FD6  
                      _Tics 0001               TAD_WIFI@state 0018                        _Rows 002E  
                      _flag 0014                        _main 0982                        _name 0079  
                      _func 000C                        fsr2h 0FDA                        indf2 0FDF  
                      fsr1l 0FE1                        fsr2l 0FD9                        _tx_i 0013  
                      btemp 007D             __end_of_TI_Init 0A96                        prodl 0FF3  
           __end_of_LcClear 0B74                        start 0020             __end_of_CantaIR 0AFC  
             LcInit@columns 0069                ___param_bank 0000                       ??_RSI 0056  
               Espera@Timer 0068                       ?_main 0056                       STR_11 0234  
                     STR_13 0253                       _T0CON 0FD5            __end_of_TAD_UART 03C4  
                     _RCREG 0FAE                       _SPBRG 0FAF                       _PORTB 0F81  
                     _TRISA 0F92                       _TRISB 0F93                       _TRISC 0F94  
                     _TRISD 0F95                       _TRISE 0F96                       _TXREG 0FAD  
           __end_of_getData 0BF2            _t@TAD_WIFI$F1219 0050                       _Timer 0052  
             TAD_WORK@state 0009                       _flags 0015                       _count 001E  
                     _index 0022                       _menus 0100                _TI_ResetTics 0AFC  
                     _tecla 0035                       _print 0029                 _LcCursorOff 0BD8  
                     tablat 0FF5                       ttemp5 007E                       ttemp6 0081  
                     ttemp7 0085                       status 0FD8              cipStart@offset 000B  
                     wtemp8 007E            __end_of_LcGotoXY 049E     EscriuPrimeraOrdre@ordre 0057  
           __initialization 07D8                __end_of_main 09D4                 ?_RSI_Timer0 0056  
            TI_Init@counter 0056                 ?_TI_GetTics 0056                      ??_main 006C  
             __activetblptr 0002                      _ADCON0 0FC2                      _ADCON1 0FC1  
                    _ADCON2 0FC0                      _ADRESH 0FC4                   ??_TI_Init 0056  
                 ??_LcClear 0069                   ??_CantaIR 0058          _enable@LcTLCD$F788 0027  
                    i2l2013 000A                      i2l2015 0018                      i2l1623 0B42  
                    i2l1625 0B46                      i2l1627 0B4E                      i2l1629 0B50  
            LcGotoXY@Fisics 0069              LcGotoXY@Column 006A               ??_WaitForBusy 0063  
                    _TMR0IF 7F92                      _SPBRGH 0FB0                      _LcInit 056E  
                    _Espera 0A20                _LcGotoXY$783 0067                      _RowAct 002C  
                    _Timers 0080            __end_of_init_ADC 0BD8                      _enable 0031  
          __end_of_init_SPK 0BCA                      _offset 0020                      clear_0 083E  
                    clear_1 084A               TAD_Menu@state 001B                   ??_getData 0056  
                    isa$std 0001                      _tx_aux 0012            __end_of_sendByte 08CA  
              __pdataCOMRAM 006C                __mediumconst 0000                      tblptrh 0FF7  
                    tblptrl 0FF6                      tblptru 0FF8                  __accesstop 0080  
   __end_of__initialization 0850               ___rparam_used 0001                 TAD_WIFI@var 0017  
    _message@TAD_WORK$F1403 0036                   ?_TAD_UART 0056              __pcstackCOMRAM 0056  
       __end_of_WaitForBusy 092A                __pidataBANK0 0BA9                __pidataBANK1 049E  
      TI_NewTimer@Comptador 0058                   ?_LcGotoXY 0064                ?_TI_NewTimer 0056  
                __pbssBANK0 0080                   TAD_UART@i 000D            TAD_Speaker@state 002F  
                   ?_LcInit 0069               _CantaPartAlta 0750      TI_NewTimer@TimerHandle 0056  
                   ?_Espera 0063                  ??_TAD_UART 0063                 sendByte@aux 0010  
             sendByte@_byte 0057     TI_ResetTics@TimerHandle 0056                 setMessage@i 000A  
                   LcInit@i 006B                  ??_LcGotoXY 0065                     i2u71_40 0018  
                   i2u71_41 0014                 sendString@i 000F                ?_LcCursorOff 0056  
                   _TI_Init 0A60                     _LcClear 0B5E                     _CantaIR 0ACA  
                 ?_init_ADC 0056                   ?_init_SPK 0056                 _WaitForBusy 08CA  
            ?_CantaPartAlta 0056                     _Columns 002D                   ?_sendByte 0056  
                   __Hparam 0000                     __Lparam 0000                ??_RSI_Timer0 0056  
                _menuBottom 0023                __psmallconst 0200                ??_TI_GetTics 005A  
                   __pcinit 07D8                     _getData 0BEE                     __ramtop 0200  
                   __ptext0 0982                     __ptext1 085E                     __ptext2 0B20  
                   __ptext3 0B74                     __ptext4 0BBA                     __ptext5 0BE4  
                   __ptext6 0B86                     __ptext7 0BCA                     __ptext8 0A96  
                   __ptext9 0BEE           __end_of_init_KEYB 0B98           __end_of_init_UART 0B86  
         __end_of_init_WIFI 0B42           __end_of_init_Menu 0BEE                   CantaIR@IR 0058  
         __end_of_initPorts 0ACA                     _rc_data 0016          _t@TAD_SPEAKER$F528 0053  
                   _menuTop 0024                     _message 00CB             WaitForBusy@Busy 0063  
      end_of_initialization 0850                  ??_init_ADC 0056          __end_of_RSI_Timer0 0B5E  
                ??_init_SPK 0059               __Lmediumconst 0000          __end_of_TI_GetTics 0A20  
                ??_sendByte 0056                  _remotePort 004A                   _RCSTAbits 0FAB  
                   postdec1 0FE5                     postinc0 0FEE                     postinc2 0FDE  
                 _PORTCbits 0F82                   _PORTEbits 0F84       TI_GetTics@TimerHandle 0062  
                 _TRISAbits 0F92                   _TRISBbits 0F93                   _TRISCbits 0F94  
                 _TRISEbits 0F96             ??_CantaPartAlta 0056               clearMessage@i 001C  
                 _TXSTAbits 0FAC    _localPort@TAD_WORK$F1400 0007              __end_of_LcInit 062E  
            __end_of_Espera 0A60                TAD_LcD@state 0026  __end_of_EscriuPrimeraOrdre 06C8  
               _BAUDCONbits 0FB8               __pidataCOMRAM 0B98                   _ColumnAct 002B  
       start_initialization 07D8                 __end_of_RSI 0020                    ??_LcInit 006A  
                  ??_Espera 0064                 __pdataBANK0 00CB                 __pdataBANK1 0100  
               __pbssCOMRAM 0001               ?_TI_ResetTics 0056                    ?_TI_Init 0056  
                  ?_LcClear 0056                    ?_CantaIR 0056              _CantaPartBaixa 06C8  
              ?_WaitForBusy 0056               _t@LcTLCD$F776 002A                   __pintcode 0008  
               _digitNumber 0032             CantaPartBaixa@c 0057                    ?_getData 0056  
               __smallconst 0200                   _init_KEYB 0B86                   _init_UART 0B74  
                 _lastState 001A                   _init_WIFI 0B20              ??_TI_ResetTics 0056  
                 _init_Menu 0BE4                   _initPorts 0A96                   _localPort 0046  
    __end_of_CantaPartBaixa 0750                    _LATAbits 0F89                    _LATBbits 0F8A  
                  _LATCbits 0F8B                    _LATDbits 0F8C                    _LATEbits 0F8D  
                  _TAD_UART 0280                    _PIR1bits 0F9E                  _ADCON0bits 0FC2  
        printMarquesina@row 001D                    Espera@ms 0063                    _LcGotoXY 03C4  
                ?_init_KEYB 0056                  ?_init_UART 0056                  ?_init_WIFI 0056  
                ?_init_Menu 0056                _teclaPremuda 0033                  ?_initPorts 0056  
               LcGotoXY@Row 0064                   copy_data0 07EC                   copy_data1 080C  
                 copy_data2 082C             ?_CantaPartBaixa 0056                    __Hrparam 0000  
                  __Lrparam 0000   _remotePort@TAD_WORK$F1401 0005             transmitString@i 0019  
                 sendByte@i 0011                    __ptext10 0A60                    __ptext11 0280  
        _EscriuPrimeraOrdre 062E                    __ptext20 0AFC                    __ptext12 056E  
                  __ptext21 09D4                    __ptext13 092A                    __ptext22 0ACA  
                  __ptext14 062E                    __ptext23 06C8                    __ptext15 03C4  
                  __ptext24 0750                    __ptext16 0BD8                    __ptext17 0B5E  
                  __ptext26 0B42                    __ptext18 08CA                    __ptext19 0A20  
             ??_TI_NewTimer 0057              CantaPartAlta@c 0057                    _init_ADC 0BCA  
                  _init_SPK 0BBA         ?_EscriuPrimeraOrdre 0056       __end_of_CantaPartAlta 07D8  
                  _sendByte 085E                    isa$xinst 0000        __end_of_TI_ResetTics 0B20  
                  int$flags 007D                    _userFlag 0025        ??_EscriuPrimeraOrdre 0056  
                LcInit@rows 006A                  _INTCONbits 0FF2                 _instruction 01A1  
               ??_init_KEYB 0059                 ??_init_UART 0059   TI_GetTics@CopiaTicsActual 005E  
               ??_init_WIFI 0059                 ??_init_Menu 0059                 ??_initPorts 0056  
             ??_LcCursorOff 0064                    intlevel2 0000               _i@LcTLCD$F787 0028  
       __end_of_TI_NewTimer 0982         __end_of_LcCursorOff 0BE4  
